
C:\Users\Whipple\AppData\Local\Temp\build2179649071929727312.tmp\winch.cpp.elf:     file format elf32-avr


Disassembly of section .text:

00000000 <__vectors>:
extern "C" void __cxa_deleted_virtual(void) __attribute__ ((__noreturn__));

void __cxa_pure_virtual(void) {
  // We might want to write some diagnostics to uart in this case
  //std::terminate();
  abort();
       0:	0c 94 06 0b 	jmp	0x160c	; 0x160c <__ctors_end>
       4:	0c 94 37 0b 	jmp	0x166e	; 0x166e <__bad_interrupt>
       8:	0c 94 37 0b 	jmp	0x166e	; 0x166e <__bad_interrupt>
       c:	0c 94 37 0b 	jmp	0x166e	; 0x166e <__bad_interrupt>
      10:	0c 94 37 0b 	jmp	0x166e	; 0x166e <__bad_interrupt>
      14:	0c 94 37 0b 	jmp	0x166e	; 0x166e <__bad_interrupt>
      18:	0c 94 37 0b 	jmp	0x166e	; 0x166e <__bad_interrupt>
      1c:	0c 94 37 0b 	jmp	0x166e	; 0x166e <__bad_interrupt>
      20:	0c 94 37 0b 	jmp	0x166e	; 0x166e <__bad_interrupt>
      24:	0c 94 37 0b 	jmp	0x166e	; 0x166e <__bad_interrupt>
      28:	0c 94 37 0b 	jmp	0x166e	; 0x166e <__bad_interrupt>
      2c:	0c 94 37 0b 	jmp	0x166e	; 0x166e <__bad_interrupt>
      30:	0c 94 1a 0d 	jmp	0x1a34	; 0x1a34 <__vector_12>
      34:	0c 94 37 0b 	jmp	0x166e	; 0x166e <__bad_interrupt>
      38:	0c 94 37 0b 	jmp	0x166e	; 0x166e <__bad_interrupt>
      3c:	0c 94 37 0b 	jmp	0x166e	; 0x166e <__bad_interrupt>
      40:	0c 94 37 0b 	jmp	0x166e	; 0x166e <__bad_interrupt>
      44:	0c 94 37 0b 	jmp	0x166e	; 0x166e <__bad_interrupt>
      48:	0c 94 37 0b 	jmp	0x166e	; 0x166e <__bad_interrupt>
      4c:	0c 94 37 0b 	jmp	0x166e	; 0x166e <__bad_interrupt>
      50:	0c 94 37 0b 	jmp	0x166e	; 0x166e <__bad_interrupt>
      54:	0c 94 37 0b 	jmp	0x166e	; 0x166e <__bad_interrupt>
      58:	0c 94 37 0b 	jmp	0x166e	; 0x166e <__bad_interrupt>
      5c:	0c 94 d1 49 	jmp	0x93a2	; 0x93a2 <__vector_23>
      60:	0c 94 37 0b 	jmp	0x166e	; 0x166e <__bad_interrupt>
      64:	0c 94 2b 4d 	jmp	0x9a56	; 0x9a56 <__vector_25>
      68:	0c 94 61 4d 	jmp	0x9ac2	; 0x9ac2 <__vector_26>
      6c:	0c 94 37 0b 	jmp	0x166e	; 0x166e <__bad_interrupt>
      70:	0c 94 37 0b 	jmp	0x166e	; 0x166e <__bad_interrupt>
      74:	0c 94 37 0b 	jmp	0x166e	; 0x166e <__bad_interrupt>
      78:	0c 94 37 0b 	jmp	0x166e	; 0x166e <__bad_interrupt>
      7c:	0c 94 37 0b 	jmp	0x166e	; 0x166e <__bad_interrupt>
      80:	0c 94 37 0b 	jmp	0x166e	; 0x166e <__bad_interrupt>
      84:	0c 94 37 0b 	jmp	0x166e	; 0x166e <__bad_interrupt>
      88:	0c 94 37 0b 	jmp	0x166e	; 0x166e <__bad_interrupt>
      8c:	0c 94 37 0b 	jmp	0x166e	; 0x166e <__bad_interrupt>
      90:	0c 94 37 0b 	jmp	0x166e	; 0x166e <__bad_interrupt>
      94:	0c 94 37 0b 	jmp	0x166e	; 0x166e <__bad_interrupt>
      98:	0c 94 37 0b 	jmp	0x166e	; 0x166e <__bad_interrupt>
      9c:	0c 94 37 0b 	jmp	0x166e	; 0x166e <__bad_interrupt>
      a0:	0c 94 37 0b 	jmp	0x166e	; 0x166e <__bad_interrupt>
      a4:	0c 94 37 0b 	jmp	0x166e	; 0x166e <__bad_interrupt>
      a8:	0c 94 37 0b 	jmp	0x166e	; 0x166e <__bad_interrupt>
      ac:	0c 94 37 0b 	jmp	0x166e	; 0x166e <__bad_interrupt>
      b0:	0c 94 37 0b 	jmp	0x166e	; 0x166e <__bad_interrupt>
      b4:	0c 94 37 0b 	jmp	0x166e	; 0x166e <__bad_interrupt>
      b8:	0c 94 37 0b 	jmp	0x166e	; 0x166e <__bad_interrupt>
      bc:	0c 94 37 0b 	jmp	0x166e	; 0x166e <__bad_interrupt>
      c0:	0c 94 37 0b 	jmp	0x166e	; 0x166e <__bad_interrupt>
      c4:	0c 94 37 0b 	jmp	0x166e	; 0x166e <__bad_interrupt>
      c8:	0c 94 37 0b 	jmp	0x166e	; 0x166e <__bad_interrupt>
      cc:	0c 94 37 0b 	jmp	0x166e	; 0x166e <__bad_interrupt>
      d0:	0c 94 37 0b 	jmp	0x166e	; 0x166e <__bad_interrupt>
      d4:	0c 94 37 0b 	jmp	0x166e	; 0x166e <__bad_interrupt>
      d8:	0c 94 d6 4d 	jmp	0x9bac	; 0x9bac <__vector_54>
      dc:	0c 94 0c 4e 	jmp	0x9c18	; 0x9c18 <__vector_55>
      e0:	0c 94 37 0b 	jmp	0x166e	; 0x166e <__bad_interrupt>
      e4:	ea 4a       	sbci	r30, 0xAA	; 170
      e6:	ed 4a       	sbci	r30, 0xAD	; 173
      e8:	dc 4a       	sbci	r29, 0xAC	; 172
      ea:	e0 4a       	sbci	r30, 0xA0	; 160
      ec:	e6 4a       	sbci	r30, 0xA6	; 166
      ee:	24 4b       	sbci	r18, 0xB4	; 180
      f0:	f1 4a       	sbci	r31, 0xA1	; 161
      f2:	f5 4a       	sbci	r31, 0xA5	; 165
      f4:	fb 4a       	sbci	r31, 0xAB	; 171
      f6:	ff 4a       	sbci	r31, 0xAF	; 175
      f8:	03 4b       	sbci	r16, 0xB3	; 179
      fa:	09 4b       	sbci	r16, 0xB9	; 185
      fc:	0d 4b       	sbci	r16, 0xBD	; 189
      fe:	11 4b       	sbci	r17, 0xB1	; 177
     100:	24 4b       	sbci	r18, 0xB4	; 180
     102:	17 4b       	sbci	r17, 0xB7	; 183
     104:	1b 4b       	sbci	r17, 0xBB	; 187
     106:	1f 4b       	sbci	r17, 0xBF	; 191

00000108 <__trampolines_end>:
     108:	2c 20       	and	r2, r12
     10a:	64 61       	ori	r22, 0x14	; 20
     10c:	74 61       	ori	r23, 0x14	; 20
     10e:	3d 30       	cpi	r19, 0x0D	; 13
     110:	78 00       	.word	0x0078	; ????

00000112 <_ZZNK19CApplicationMonitor4DumpER5PrintbE3__c_4>:
     112:	3a 20 62 79 74 65 2d 61 64 64 72 65 73 73 3d 30     : byte-address=0
     122:	78 00                                               x.

00000124 <_ZZNK19CApplicationMonitor4DumpER5PrintbE3__c_3>:
     124:	3a 20 77 6f 72 64 2d 61 64 64 72 65 73 73 3d 30     : word-address=0
     134:	78 00                                               x.

00000136 <_ZZNK19CApplicationMonitor4DumpER5PrintbE3__c_2>:
     136:	4e 65 78 74 20 72 65 70 6f 72 74 3a 20 00           Next report: .

00000144 <_ZZNK19CApplicationMonitor4DumpER5PrintbE3__c_1>:
     144:	53 61 76 65 64 20 72 65 70 6f 72 74 73 3a 20 00     Saved reports: .

00000154 <_ZZNK19CApplicationMonitor4DumpER5PrintbE3__c_0>:
     154:	2d 2d 2d 2d 2d 2d 2d 2d 2d 2d 2d 2d 2d 2d 2d 2d     ----------------
     164:	2d 2d 2d 00                                         ---.

00000168 <_ZZNK19CApplicationMonitor4DumpER5PrintbE3__c>:
     168:	41 70 70 6c 69 63 61 74 69 6f 6e 20 4d 6f 6e 69     Application Moni
     178:	74 6f 72 00                                         tor.

0000017c <_ZZN17cmdProcessorClass11readCommandEvE3__c_145>:
     17c:	42 61 64 20 63 6f 6d 6d 61 6e 64 3a 20 00           Bad command: .

0000018a <_ZZN17cmdProcessorClass11readCommandEvE3__c_144>:
	...

0000018b <_ZZN17cmdProcessorClass11readCommandEvE3__c_143>:
     18b:	20 20 20 20 75 70 74 69 6d 65 00                        uptime.

00000196 <_ZZN17cmdProcessorClass11readCommandEvE3__c_142>:
     196:	20 20 20 20 76 65 72 00                                 ver.

0000019e <_ZZN17cmdProcessorClass11readCommandEvE3__c_141>:
     19e:	20 20 20 20 63 6c 65 61 72 72 65 70 6f 72 74 73         clearreports
	...

000001af <_ZZN17cmdProcessorClass11readCommandEvE3__c_140>:
     1af:	20 20 20 20 72 65 73 65 74 5f 6d 6f 74 6f 72 5f         reset_motor_
     1bf:	74 69 6d 65 00                                      time.

000001c4 <_ZZN17cmdProcessorClass11readCommandEvE3__c_139>:
     1c4:	20 20 20 20 6d 6f 74 6f 72 5f 74 69 6d 65 00            motor_time.

000001d3 <_ZZN17cmdProcessorClass11readCommandEvE3__c_138>:
     1d3:	20 20 20 20 72 65 62 6f 6f 74 00                        reboot.

000001de <_ZZN17cmdProcessorClass11readCommandEvE3__c_137>:
     1de:	20 20 20 20 73 61 76 65 5f 73 74 61 74 65 00            save_state.

000001ed <_ZZN17cmdProcessorClass11readCommandEvE3__c_136>:
     1ed:	20 20 20 20 66 62 5f 70 65 72 69 6f 64 00               fb_period.

000001fb <_ZZN17cmdProcessorClass11readCommandEvE3__c_135>:
     1fb:	0a 20 20 53 79 73 74 65 6d 20 43 6f 6d 6d 61 6e     .  System Comman
     20b:	64 73 3a 00                                         ds:.

0000020f <_ZZN17cmdProcessorClass11readCommandEvE3__c_134>:
     20f:	20 20 20 20 73 74 6f 72 65 5f 74 75 6e 69 6e 67         store_tuning
	...

00000220 <_ZZN17cmdProcessorClass11readCommandEvE3__c_133>:
     220:	20 20 20 20 76 66 66 20 78 00                           vff x.

0000022a <_ZZN17cmdProcessorClass11readCommandEvE3__c_132>:
     22a:	20 20 20 20 70 69 64 73 63 61 6c 61 72 20 78 00         pidscalar x.

0000023a <_ZZN17cmdProcessorClass11readCommandEvE3__c_131>:
     23a:	20 20 20 20 64 74 65 72 6d 20 78 00                     dterm x.

00000246 <_ZZN17cmdProcessorClass11readCommandEvE3__c_130>:
     246:	20 20 20 20 69 74 65 72 6d 20 78 00                     iterm x.

00000252 <_ZZN17cmdProcessorClass11readCommandEvE3__c_129>:
     252:	20 20 20 20 70 74 65 72 6d 20 78 00                     pterm x.

0000025e <_ZZN17cmdProcessorClass11readCommandEvE3__c_128>:
     25e:	0a 20 20 50 49 44 20 54 75 6e 69 6e 67 20 43 6f     .  PID Tuning Co
     26e:	6d 6d 61 6e 64 73 3a 00                             mmands:.

00000276 <_ZZN17cmdProcessorClass11readCommandEvE3__c_127>:
     276:	20 20 20 20 6d 61 78 5f 72 65 76 6f 6c 75 74 69         max_revoluti
     286:	6f 6e 73 20 78 00                                   ons x.

0000028c <_ZZN17cmdProcessorClass11readCommandEvE3__c_126>:
     28c:	20 20 20 20 6d 6f 74 6f 72 5f 72 70 6d 20 78 00         motor_rpm x.

0000029c <_ZZN17cmdProcessorClass11readCommandEvE3__c_125>:
     29c:	20 20 20 20 6d 6f 74 6f 72 5f 63 70 72 20 78 00         motor_cpr x.

000002ac <_ZZN17cmdProcessorClass11readCommandEvE3__c_124>:
     2ac:	20 20 20 20 61 6d 70 73 5f 6c 69 6d 69 74 20 78         amps_limit x
	...

000002bd <_ZZN17cmdProcessorClass11readCommandEvE3__c_123>:
     2bd:	20 20 20 20 73 65 74 5f 7a 65 72 6f 00                  set_zero.

000002ca <_ZZN17cmdProcessorClass11readCommandEvE3__c_122>:
     2ca:	20 20 20 20 6d 6f 76 65 5f 74 6f 5f 70 6f 73 69         move_to_posi
     2da:	74 69 6f 6e 20 78 20 61 74 20 78 00                 tion x at x.

000002e6 <_ZZN17cmdProcessorClass11readCommandEvE3__c_121>:
     2e6:	20 20 20 20 6d 6f 76 65 5f 74 6f 5f 72 65 76 6f         move_to_revo
     2f6:	6c 75 74 69 6f 6e 20 78 20 61 74 20 78 00           lution x at x.

00000304 <_ZZN17cmdProcessorClass11readCommandEvE3__c_120>:
     304:	20 20 20 20 64 6f 77 6e 5f 64 69 73 74 61 6e 63         down_distanc
     314:	65 20 78 20 61 74 20 78 00                          e x at x.

0000031d <_ZZN17cmdProcessorClass11readCommandEvE3__c_119>:
     31d:	20 20 20 20 75 70 5f 64 69 73 74 61 6e 63 65 20         up_distance 
     32d:	78 20 61 74 20 78 00                                x at x.

00000334 <_ZZN17cmdProcessorClass11readCommandEvE3__c_118>:
     334:	20 20 20 20 64 6f 77 6e 5f 72 65 76 6f 6c 75 74         down_revolut
     344:	69 6f 6e 73 20 78 20 61 74 20 78 00                 ions x at x.

00000350 <_ZZN17cmdProcessorClass11readCommandEvE3__c_117>:
     350:	20 20 20 20 75 70 5f 72 65 76 6f 6c 75 74 69 6f         up_revolutio
     360:	6e 73 20 78 20 61 74 20 78 00                       ns x at x.

0000036a <_ZZN17cmdProcessorClass11readCommandEvE3__c_116>:
     36a:	20 20 20 20 73 74 6f 70 00                              stop.

00000373 <_ZZN17cmdProcessorClass11readCommandEvE3__c_115>:
     373:	0a 20 20 4d 6f 74 6f 72 20 43 6f 6d 6d 61 6e 64     .  Motor Command
     383:	73 3a 00                                            s:.

00000386 <_ZZN17cmdProcessorClass11readCommandEvE3__c_114>:
     386:	20 20 20 20 70 6f 72 74 5f 62 61 73 65 20 78 00         port_base x.

00000396 <_ZZN17cmdProcessorClass11readCommandEvE3__c_113>:
     396:	20 20 20 20 73 75 62 6e 65 74 20 78 78 78 2c 78         subnet xxx,x
     3a6:	78 78 2c 78 78 78 2c 78 78 78 00                    xx,xxx,xxx.

000003b1 <_ZZN17cmdProcessorClass11readCommandEvE3__c_112>:
     3b1:	20 20 20 20 67 61 74 65 77 61 79 20 78 78 78 2c         gateway xxx,
     3c1:	78 78 78 2c 78 78 78 2c 78 78 78 00                 xxx,xxx,xxx.

000003cd <_ZZN17cmdProcessorClass11readCommandEvE3__c_111>:
     3cd:	20 20 20 20 64 6e 73 20 78 78 78 2c 78 78 78 2c         dns xxx,xxx,
     3dd:	78 78 78 2c 78 78 78 00                             xxx,xxx.

000003e5 <_ZZN17cmdProcessorClass11readCommandEvE3__c_110>:
     3e5:	20 20 20 20 69 70 5f 61 64 64 72 65 73 73 20 78         ip_address x
     3f5:	78 78 2c 78 78 78 2c 78 78 78 2c 78 78 78 00        xx,xxx,xxx,xxx.

00000404 <_ZZN17cmdProcessorClass11readCommandEvE3__c_109>:
     404:	0a 20 20 4e 65 74 77 6f 72 6b 20 43 6f 6d 6d 61     .  Network Comma
     414:	6e 64 73 3a 00                                      nds:.

00000419 <_ZZN17cmdProcessorClass11readCommandEvE3__c_108>:
     419:	0a 43 6f 6d 6d 61 6e 64 73 20 41 76 61 69 6c 61     .Commands Availa
     429:	62 6c 65 3a 0a 00                                   ble:..

0000042f <_ZZN17cmdProcessorClass11readCommandEvE3__c_107>:
     42f:	20 70 65 72 63 65 6e 74 20 66 6f 72 20 66 65 65      percent for fee
     43f:	64 62 61 63 6b 20 62 61 73 65 64 20 6d 6f 76 65     dback based move
     44f:	73 2e 00                                            s..

00000452 <_ZZN17cmdProcessorClass11readCommandEvE3__c_106>:
     452:	4d 61 78 20 53 70 65 65 64 20 73 65 74 20 74 6f     Max Speed set to
     462:	20 00                                                .

00000464 <_ZZN17cmdProcessorClass11readCommandEvE3__c_105>:
     464:	20 73 65 63 6f 6e 64 73 2e 00                        seconds..

0000046e <_ZZN17cmdProcessorClass11readCommandEvE3__c_104>:
     46e:	46 65 65 64 62 61 63 6b 20 70 65 72 69 6f 64 20     Feedback period 
     47e:	73 65 74 20 74 6f 20 00                             set to .

00000486 <_ZZN17cmdProcessorClass11readCommandEvE3__c_103>:
     486:	20 20 4d 75 73 74 20 62 65 20 61 20 6e 75 6d 62       Must be a numb
     496:	65 72 20 67 72 65 61 74 65 72 20 74 68 61 6e 20     er greater than 
     4a6:	7a 65 72 6f 2e 00                                   zero..

000004ac <_ZZN17cmdProcessorClass11readCommandEvE3__c_102>:
     4ac:	42 61 64 20 63 6f 6d 6d 61 6e 64 3a 20 00           Bad command: .

000004ba <_ZZN17cmdProcessorClass11readCommandEvE3__c_101>:
     4ba:	4d 6f 74 6f 72 20 52 50 4d 20 73 65 74 20 74 6f     Motor RPM set to
     4ca:	20 00                                                .

000004cc <_ZZN17cmdProcessorClass11readCommandEvE3__c_100>:
     4cc:	20 20 4d 75 73 74 20 62 65 20 61 20 6e 75 6d 62       Must be a numb
     4dc:	65 72 20 67 72 65 61 74 65 72 20 74 68 61 6e 20     er greater than 
     4ec:	7a 65 72 6f 2e 00                                   zero..

000004f2 <_ZZN17cmdProcessorClass11readCommandEvE3__c_99>:
     4f2:	42 61 64 20 63 6f 6d 6d 61 6e 64 3a 20 00           Bad command: .

00000500 <_ZZN17cmdProcessorClass11readCommandEvE3__c_98>:
     500:	4d 6f 74 6f 72 20 63 6f 75 6e 74 73 20 70 65 72     Motor counts per
     510:	20 72 65 76 6f 6c 75 74 69 6f 6e 20 73 65 74 20      revolution set 
     520:	74 6f 3a 20 00                                      to: .

00000525 <_ZZN17cmdProcessorClass11readCommandEvE3__c_97>:
     525:	20 20 4d 75 73 74 20 62 65 20 61 20 70 6f 73 69       Must be a posi
     535:	74 69 76 65 20 69 6e 74 65 67 65 72 2e 00           tive integer..

00000543 <_ZZN17cmdProcessorClass11readCommandEvE3__c_96>:
     543:	42 61 64 20 63 6f 6d 6d 61 6e 64 3a 20 00           Bad command: .

00000551 <_ZZN17cmdProcessorClass11readCommandEvE3__c_95>:
     551:	41 70 70 6c 69 63 61 74 69 6f 6e 20 4d 6f 6e 69     Application Moni
     561:	74 6f 72 20 52 65 70 6f 72 74 73 20 43 6c 65 61     tor Reports Clea
     571:	72 65 64 2e 00                                      red..

00000576 <_ZZN17cmdProcessorClass11readCommandEvE3__c_94>:
     576:	52 65 73 65 74 74 69 6e 67 20 74 6f 74 61 6c 20     Resetting total 
     586:	61 63 63 75 6d 75 6c 61 74 65 64 20 6d 6f 74 6f     accumulated moto
     596:	72 20 72 75 6e 20 74 69 6d 65 20 74 6f 20 7a 65     r run time to ze
     5a6:	72 6f 2e 00                                         ro..

000005aa <_ZZN17cmdProcessorClass11readCommandEvE3__c_93>:
     5aa:	4d 6f 74 6f 72 20 74 69 6d 65 20 73 65 74 20 74     Motor time set t
     5ba:	6f 3a 20 00                                         o: .

000005be <_ZZN17cmdProcessorClass11readCommandEvE3__c_92>:
     5be:	20 20 4d 75 73 74 20 62 65 20 61 20 70 6f 73 69       Must be a posi
     5ce:	74 69 76 65 20 6e 75 6d 62 65 72 2e 00              tive number..

000005db <_ZZN17cmdProcessorClass11readCommandEvE3__c_91>:
     5db:	42 61 64 20 63 6f 6d 6d 61 6e 64 3a 20 00           Bad command: .

000005e9 <_ZZN17cmdProcessorClass11readCommandEvE3__c_90>:
     5e9:	20 44 61 79 73 00                                    Days.

000005ef <_ZZN17cmdProcessorClass11readCommandEvE3__c_89>:
     5ef:	53 79 73 74 65 6d 20 72 65 73 74 61 72 74 69 6e     System restartin
     5ff:	67 2e 00                                            g..

00000602 <_ZZN17cmdProcessorClass11readCommandEvE3__c_88>:
     602:	53 61 76 69 6e 67 20 73 79 73 74 65 6d 20 73 74     Saving system st
     612:	61 74 65 2e 00                                      ate..

00000617 <_ZZN17cmdProcessorClass11readCommandEvE3__c_87>:
     617:	2e 20 20 52 65 71 75 69 72 65 73 20 72 65 73 74     .  Requires rest
     627:	61 72 74 20 74 6f 20 74 61 6b 65 20 65 66 66 65     art to take effe
     637:	63 74 2e 00                                         ct..

0000063b <_ZZN17cmdProcessorClass11readCommandEvE3__c_86>:
     63b:	50 6f 72 74 20 62 61 73 65 20 73 65 74 20 74 6f     Port base set to
     64b:	3a 20 00                                            : .

0000064e <_ZZN17cmdProcessorClass11readCommandEvE3__c_85>:
     64e:	20 20 4d 75 73 74 20 62 65 20 61 6e 20 69 6e 74       Must be an int
     65e:	65 67 65 72 20 66 72 6f 6d 20 30 20 74 68 72 6f     eger from 0 thro
     66e:	75 67 68 20 36 35 35 33 33 2e 00                    ugh 65533..

00000679 <_ZZN17cmdProcessorClass11readCommandEvE3__c_84>:
     679:	42 61 64 20 63 6f 6d 6d 61 6e 64 3a 20 00           Bad command: .

00000687 <_ZZN17cmdProcessorClass11readCommandEvE3__c_83>:
     687:	50 49 44 20 74 75 6e 69 6e 67 20 70 61 72 61 6d     PID tuning param
     697:	65 74 65 72 73 20 73 74 6f 72 65 64 20 74 6f 20     eters stored to 
     6a7:	45 45 50 52 4f 4d 2e 00                             EEPROM..

000006af <_ZZN17cmdProcessorClass11readCommandEvE3__c_82>:
     6af:	56 65 6c 6f 63 69 74 79 20 66 65 65 64 20 66 6f     Velocity feed fo
     6bf:	72 77 61 72 64 20 73 65 74 20 74 6f 3a 20 00        rward set to: .

000006ce <_ZZN17cmdProcessorClass11readCommandEvE3__c_81>:
     6ce:	20 20 4d 75 73 74 20 62 65 20 61 6e 20 69 6e 74       Must be an int
     6de:	65 67 65 72 20 66 72 6f 6d 20 30 20 74 68 72 6f     eger from 0 thro
     6ee:	75 67 68 20 32 35 35 2e 00                          ugh 255..

000006f7 <_ZZN17cmdProcessorClass11readCommandEvE3__c_80>:
     6f7:	42 61 64 20 63 6f 6d 6d 61 6e 64 3a 20 00           Bad command: .

00000705 <_ZZN17cmdProcessorClass11readCommandEvE3__c_79>:
     705:	50 49 44 53 43 41 4c 41 52 20 73 65 74 20 74 6f     PIDSCALAR set to
     715:	3a 20 00                                            : .

00000718 <_ZZN17cmdProcessorClass11readCommandEvE3__c_78>:
     718:	20 20 4d 75 73 74 20 62 65 20 61 6e 20 69 6e 74       Must be an int
     728:	65 67 65 72 20 66 72 6f 6d 20 30 20 74 68 72 6f     eger from 0 thro
     738:	75 67 68 20 33 32 2e 00                             ugh 32..

00000740 <_ZZN17cmdProcessorClass11readCommandEvE3__c_77>:
     740:	42 61 64 20 63 6f 6d 6d 61 6e 64 3a 20 00           Bad command: .

0000074e <_ZZN17cmdProcessorClass11readCommandEvE3__c_76>:
     74e:	44 20 74 65 72 6d 20 73 65 74 20 74 6f 3a 20 00     D term set to: .

0000075e <_ZZN17cmdProcessorClass11readCommandEvE3__c_75>:
     75e:	20 20 4d 75 73 74 20 62 65 20 61 6e 20 69 6e 74       Must be an int
     76e:	65 67 65 72 20 66 72 6f 6d 20 30 20 74 68 72 6f     eger from 0 thro
     77e:	75 67 68 20 36 35 35 33 35 2e 00                    ugh 65535..

00000789 <_ZZN17cmdProcessorClass11readCommandEvE3__c_74>:
     789:	42 61 64 20 63 6f 6d 6d 61 6e 64 3a 20 00           Bad command: .

00000797 <_ZZN17cmdProcessorClass11readCommandEvE3__c_73>:
     797:	49 20 74 65 72 6d 20 73 65 74 20 74 6f 3a 20 00     I term set to: .

000007a7 <_ZZN17cmdProcessorClass11readCommandEvE3__c_72>:
     7a7:	20 20 4d 75 73 74 20 62 65 20 61 6e 20 69 6e 74       Must be an int
     7b7:	65 67 65 72 20 66 72 6f 6d 20 30 20 74 68 72 6f     eger from 0 thro
     7c7:	75 67 68 20 36 35 35 33 35 2e 00                    ugh 65535..

000007d2 <_ZZN17cmdProcessorClass11readCommandEvE3__c_71>:
     7d2:	42 61 64 20 63 6f 6d 6d 61 6e 64 3a 20 00           Bad command: .

000007e0 <_ZZN17cmdProcessorClass11readCommandEvE3__c_70>:
     7e0:	50 20 74 65 72 6d 20 73 65 74 20 74 6f 3a 20 00     P term set to: .

000007f0 <_ZZN17cmdProcessorClass11readCommandEvE3__c_69>:
     7f0:	20 20 4d 75 73 74 20 62 65 20 61 6e 20 69 6e 74       Must be an int
     800:	65 67 65 72 20 66 72 6f 6d 20 30 20 74 68 72 6f     eger from 0 thro
     810:	75 67 68 20 36 35 35 33 35 2e 00                    ugh 65535..

0000081b <_ZZN17cmdProcessorClass11readCommandEvE3__c_68>:
     81b:	42 61 64 20 63 6f 6d 6d 61 6e 64 3a 20 00           Bad command: .

00000829 <_ZZN17cmdProcessorClass11readCommandEvE3__c_67>:
     829:	20 72 65 76 6f 6c 75 74 69 6f 6e 73 2e 00            revolutions..

00000837 <_ZZN17cmdProcessorClass11readCommandEvE3__c_66>:
     837:	4d 61 78 20 72 65 76 6f 6c 75 74 69 6f 6e 73 20     Max revolutions 
     847:	73 65 74 20 74 6f 20 00                             set to .

0000084f <_ZZN17cmdProcessorClass11readCommandEvE3__c_65>:
     84f:	20 20 4d 75 73 74 20 62 65 20 61 20 6e 75 6d 62       Must be a numb
     85f:	65 72 20 67 72 65 61 74 65 72 20 74 68 61 6e 20     er greater than 
     86f:	7a 65 72 6f 2e 00                                   zero..

00000875 <_ZZN17cmdProcessorClass11readCommandEvE3__c_64>:
     875:	42 61 64 20 63 6f 6d 6d 61 6e 64 3a 20 00           Bad command: .

00000883 <_ZZN17cmdProcessorClass11readCommandEvE3__c_63>:
     883:	20 61 6d 70 73 2e 00                                 amps..

0000088a <_ZZN17cmdProcessorClass11readCommandEvE3__c_62>:
     88a:	4d 6f 74 6f 72 20 63 75 72 72 65 6e 74 20 6c 69     Motor current li
     89a:	6d 69 74 20 73 65 74 20 74 6f 20 00                 mit set to .

000008a6 <_ZZN17cmdProcessorClass11readCommandEvE3__c_61>:
     8a6:	42 61 64 20 63 6f 6d 6d 61 6e 64 3a 20 00           Bad command: .

000008b4 <_ZZN17cmdProcessorClass11readCommandEvE3__c_60>:
     8b4:	43 75 72 72 65 6e 74 20 70 6f 73 69 74 6f 6e 20     Current positon 
     8c4:	73 65 74 20 74 6f 20 7a 65 72 6f 2e 00              set to zero..

000008d1 <_ZZN17cmdProcessorClass11readCommandEvE3__c_59>:
     8d1:	20 4e 6f 20 72 65 63 65 6e 74 20 70 6f 73 69 74      No recent posit
     8e1:	69 6f 6e 20 66 65 65 64 62 61 63 6b 2e 00           ion feedback..

000008ef <_ZZN17cmdProcessorClass11readCommandEvE3__c_58>:
     8ef:	42 61 64 20 63 6f 6d 6d 61 6e 64 3a 20 00           Bad command: .

000008fd <_ZZN17cmdProcessorClass11readCommandEvE3__c_57>:
     8fd:	20 70 65 72 63 65 6e 74 20 6f 66 20 66 75 6c 6c      percent of full
     90d:	20 73 70 65 65 64 2e 00                              speed..

00000915 <_ZZN17cmdProcessorClass11readCommandEvE3__c_56>:
     915:	20 62 61 73 65 64 20 6f 6e 20 70 6f 73 69 74 69      based on positi
     925:	6f 6e 20 66 65 65 64 62 61 63 6b 20 61 74 20 00     on feedback at .

00000935 <_ZZN17cmdProcessorClass11readCommandEvE3__c_55>:
     935:	4d 6f 76 69 6e 67 20 74 6f 20 00                    Moving to .

00000940 <_ZZN17cmdProcessorClass11readCommandEvE3__c_54>:
     940:	43 61 6e 6e 6f 74 20 72 61 69 73 65 20 64 75 65     Cannot raise due
     950:	20 74 6f 20 4e 4f 5f 52 41 49 53 45 20 6f 72 20      to NO_RAISE or 
     960:	45 5f 53 54 4f 50 20 69 6e 70 75 74 2e 00           E_STOP input..

0000096e <_ZZN17cmdProcessorClass11readCommandEvE3__c_53>:
     96e:	43 61 6e 6e 6f 74 20 6c 6f 77 65 72 20 64 75 65     Cannot lower due
     97e:	20 74 6f 20 4e 4f 5f 4c 4f 57 45 52 20 6f 72 20      to NO_LOWER or 
     98e:	45 5f 53 54 4f 50 20 69 6e 70 75 74 2e 00           E_STOP input..

0000099c <_ZZN17cmdProcessorClass11readCommandEvE3__c_52>:
     99c:	20 70 65 72 63 65 6e 74 2e 00                        percent..

000009a6 <_ZZN17cmdProcessorClass11readCommandEvE3__c_51>:
     9a6:	20 20 53 70 65 65 64 20 6d 75 73 74 20 62 65 20       Speed must be 
     9b6:	66 72 6f 6d 20 32 20 74 68 72 6f 75 67 68 20 00     from 2 through .

000009c6 <_ZZN17cmdProcessorClass11readCommandEvE3__c_50>:
     9c6:	42 61 64 20 63 6f 6d 6d 61 6e 64 3a 20 00           Bad command: .

000009d4 <_ZZN17cmdProcessorClass11readCommandEvE3__c_49>:
     9d4:	20 70 65 72 63 65 6e 74 20 6f 66 20 66 75 6c 6c      percent of full
     9e4:	20 73 70 65 65 64 2e 00                              speed..

000009ec <_ZZN17cmdProcessorClass11readCommandEvE3__c_48>:
     9ec:	20 72 65 76 6f 6c 75 74 69 6f 6e 73 20 61 74 20      revolutions at 
	...

000009fd <_ZZN17cmdProcessorClass11readCommandEvE3__c_47>:
     9fd:	4d 6f 76 69 6e 67 20 74 6f 20 00                    Moving to .

00000a08 <_ZZN17cmdProcessorClass11readCommandEvE3__c_46>:
     a08:	43 61 6e 6e 6f 74 20 72 61 69 73 65 20 64 75 65     Cannot raise due
     a18:	20 74 6f 20 4e 4f 5f 52 41 49 53 45 20 6f 72 20      to NO_RAISE or 
     a28:	45 5f 53 54 4f 50 20 69 6e 70 75 74 2e 00           E_STOP input..

00000a36 <_ZZN17cmdProcessorClass11readCommandEvE3__c_45>:
     a36:	43 61 6e 6e 6f 74 20 6c 6f 77 65 72 20 64 75 65     Cannot lower due
     a46:	20 74 6f 20 4e 4f 5f 4c 4f 57 45 52 20 6f 72 20      to NO_LOWER or 
     a56:	45 5f 53 54 4f 50 20 69 6e 70 75 74 2e 00           E_STOP input..

00000a64 <_ZZN17cmdProcessorClass11readCommandEvE3__c_44>:
     a64:	42 61 64 20 63 6f 6d 6d 61 6e 64 3a 20 00           Bad command: .

00000a72 <_ZZN17cmdProcessorClass11readCommandEvE3__c_43>:
     a72:	20 4e 6f 20 72 65 63 65 6e 74 20 70 6f 73 69 74      No recent posit
     a82:	69 6f 6e 20 66 65 65 64 62 61 63 6b 2e 00           ion feedback..

00000a90 <_ZZN17cmdProcessorClass11readCommandEvE3__c_42>:
     a90:	42 61 64 20 63 6f 6d 6d 61 6e 64 3a 20 00           Bad command: .

00000a9e <_ZZN17cmdProcessorClass11readCommandEvE3__c_41>:
     a9e:	20 70 65 72 63 65 6e 74 20 6f 66 20 66 75 6c 6c      percent of full
     aae:	20 73 70 65 65 64 2e 00                              speed..

00000ab6 <_ZZN17cmdProcessorClass11readCommandEvE3__c_40>:
     ab6:	20 62 61 73 65 64 20 6f 6e 20 70 6f 73 69 74 69      based on positi
     ac6:	6f 6e 20 66 65 65 64 62 61 63 6b 20 61 74 20 00     on feedback at .

00000ad6 <_ZZN17cmdProcessorClass11readCommandEvE3__c_39>:
     ad6:	4d 6f 76 69 6e 67 20 64 6f 77 6e 20 00              Moving down .

00000ae3 <_ZZN17cmdProcessorClass11readCommandEvE3__c_38>:
     ae3:	43 61 6e 6e 6f 74 20 6c 6f 77 65 72 20 64 75 65     Cannot lower due
     af3:	20 74 6f 20 4e 4f 5f 4c 4f 57 45 52 20 6f 72 20      to NO_LOWER or 
     b03:	45 5f 53 54 4f 50 20 69 6e 70 75 74 2e 00           E_STOP input..

00000b11 <_ZZN17cmdProcessorClass11readCommandEvE3__c_37>:
     b11:	20 70 65 72 63 65 6e 74 2e 00                        percent..

00000b1b <_ZZN17cmdProcessorClass11readCommandEvE3__c_36>:
     b1b:	20 20 44 69 73 74 61 6e 63 65 20 6d 75 73 74 20       Distance must 
     b2b:	62 65 20 70 6f 73 69 74 69 76 65 20 61 6e 64 20     be positive and 
     b3b:	73 70 65 65 64 20 6d 75 73 74 20 62 65 20 66 72     speed must be fr
     b4b:	6f 6d 20 32 20 74 68 72 6f 75 67 68 20 00           om 2 through .

00000b59 <_ZZN17cmdProcessorClass11readCommandEvE3__c_35>:
     b59:	42 61 64 20 63 6f 6d 6d 61 6e 64 3a 20 00           Bad command: .

00000b67 <_ZZN17cmdProcessorClass11readCommandEvE3__c_34>:
     b67:	20 4e 6f 20 72 65 63 65 6e 74 20 70 6f 73 69 74      No recent posit
     b77:	69 6f 6e 20 66 65 65 64 62 61 63 6b 2e 00           ion feedback..

00000b85 <_ZZN17cmdProcessorClass11readCommandEvE3__c_33>:
     b85:	42 61 64 20 63 6f 6d 6d 61 6e 64 3a 20 00           Bad command: .

00000b93 <_ZZN17cmdProcessorClass11readCommandEvE3__c_32>:
     b93:	20 70 65 72 63 65 6e 74 20 6f 66 20 66 75 6c 6c      percent of full
     ba3:	20 73 70 65 65 64 2e 00                              speed..

00000bab <_ZZN17cmdProcessorClass11readCommandEvE3__c_31>:
     bab:	20 62 61 73 65 64 20 6f 6e 20 70 6f 73 69 74 69      based on positi
     bbb:	6f 6e 20 66 65 65 64 62 61 63 6b 20 61 74 20 00     on feedback at .

00000bcb <_ZZN17cmdProcessorClass11readCommandEvE3__c_30>:
     bcb:	4d 6f 76 69 6e 67 20 75 70 20 00                    Moving up .

00000bd6 <_ZZN17cmdProcessorClass11readCommandEvE3__c_29>:
     bd6:	43 61 6e 6e 6f 74 20 72 61 69 73 65 20 64 75 65     Cannot raise due
     be6:	20 74 6f 20 4e 4f 5f 52 41 49 53 45 20 6f 72 20      to NO_RAISE or 
     bf6:	45 5f 53 54 4f 50 20 69 6e 70 75 74 2e 00           E_STOP input..

00000c04 <_ZZN17cmdProcessorClass11readCommandEvE3__c_28>:
     c04:	20 70 65 72 63 65 6e 74 2e 00                        percent..

00000c0e <_ZZN17cmdProcessorClass11readCommandEvE3__c_27>:
     c0e:	20 20 44 69 73 74 61 6e 63 65 20 6d 75 73 74 20       Distance must 
     c1e:	62 65 20 70 6f 73 69 74 69 76 65 20 61 6e 64 20     be positive and 
     c2e:	73 70 65 65 64 20 6d 75 73 74 20 62 65 20 66 72     speed must be fr
     c3e:	6f 6d 20 32 20 74 68 72 6f 75 67 68 20 00           om 2 through .

00000c4c <_ZZN17cmdProcessorClass11readCommandEvE3__c_26>:
     c4c:	42 61 64 20 63 6f 6d 6d 61 6e 64 3a 20 00           Bad command: .

00000c5a <_ZZN17cmdProcessorClass11readCommandEvE3__c_25>:
     c5a:	20 70 65 72 63 65 6e 74 20 6f 66 20 66 75 6c 6c      percent of full
     c6a:	20 73 70 65 65 64 2e 00                              speed..

00000c72 <_ZZN17cmdProcessorClass11readCommandEvE3__c_24>:
     c72:	20 72 65 76 6f 6c 75 74 69 6f 6e 73 20 61 74 20      revolutions at 
	...

00000c83 <_ZZN17cmdProcessorClass11readCommandEvE3__c_23>:
     c83:	4d 6f 76 69 6e 67 20 64 6f 77 6e 20 00              Moving down .

00000c90 <_ZZN17cmdProcessorClass11readCommandEvE3__c_22>:
     c90:	43 61 6e 6e 6f 74 20 6c 6f 77 65 72 20 64 75 65     Cannot lower due
     ca0:	20 74 6f 20 4e 4f 5f 4c 4f 57 45 52 20 6f 72 20      to NO_LOWER or 
     cb0:	45 5f 53 54 4f 50 20 69 6e 70 75 74 2e 00           E_STOP input..

00000cbe <_ZZN17cmdProcessorClass11readCommandEvE3__c_21>:
     cbe:	42 61 64 20 63 6f 6d 6d 61 6e 64 3a 20 00           Bad command: .

00000ccc <_ZZN17cmdProcessorClass11readCommandEvE3__c_20>:
     ccc:	20 70 65 72 63 65 6e 74 20 6f 66 20 66 75 6c 6c      percent of full
     cdc:	20 73 70 65 65 64 2e 00                              speed..

00000ce4 <_ZZN17cmdProcessorClass11readCommandEvE3__c_19>:
     ce4:	20 72 65 76 6f 6c 75 74 69 6f 6e 73 20 61 74 20      revolutions at 
	...

00000cf5 <_ZZN17cmdProcessorClass11readCommandEvE3__c_18>:
     cf5:	4d 6f 76 69 6e 67 20 75 70 20 00                    Moving up .

00000d00 <_ZZN17cmdProcessorClass11readCommandEvE3__c_17>:
     d00:	43 61 6e 6e 6f 74 20 72 61 69 73 65 20 64 75 65     Cannot raise due
     d10:	20 74 6f 20 4e 4f 5f 52 41 49 53 45 20 6f 72 20      to NO_RAISE or 
     d20:	45 5f 53 54 4f 50 20 69 6e 70 75 74 2e 00           E_STOP input..

00000d2e <_ZZN17cmdProcessorClass11readCommandEvE3__c_16>:
     d2e:	42 61 64 20 63 6f 6d 6d 61 6e 64 3a 20 00           Bad command: .

00000d3c <_ZZN17cmdProcessorClass11readCommandEvE3__c_15>:
     d3c:	53 74 6f 70 70 65 64 2e 00                          Stopped..

00000d45 <_ZZN17cmdProcessorClass11readCommandEvE3__c_14>:
     d45:	53 75 62 6e 65 74 20 6d 61 73 6b 20 73 65 74 20     Subnet mask set 
     d55:	74 6f 20 00                                         to .

00000d59 <_ZZN17cmdProcessorClass11readCommandEvE3__c_13>:
     d59:	20 64 6f 65 73 20 6e 6f 74 20 70 61 72 73 65 20      does not parse 
     d69:	74 6f 20 61 6e 20 49 50 20 61 64 64 72 65 73 73     to an IP address
     d79:	2e 00                                               ..

00000d7b <_ZZN17cmdProcessorClass11readCommandEvE3__c_12>:
     d7b:	45 52 52 4f 52 3a 20 00                             ERROR: .

00000d83 <_ZZN17cmdProcessorClass11readCommandEvE3__c_11>:
     d83:	30 2e 30 2e 30 2e 30 00                             0.0.0.0.

00000d8b <_ZZN17cmdProcessorClass11readCommandEvE3__c_10>:
     d8b:	47 61 74 65 77 61 79 20 61 64 64 72 65 73 73 20     Gateway address 
     d9b:	73 65 74 20 74 6f 20 00                             set to .

00000da3 <_ZZN17cmdProcessorClass11readCommandEvE3__c_9>:
     da3:	20 64 6f 65 73 20 6e 6f 74 20 70 61 72 73 65 20      does not parse 
     db3:	74 6f 20 61 6e 20 49 50 20 61 64 64 72 65 73 73     to an IP address
     dc3:	2e 00                                               ..

00000dc5 <_ZZN17cmdProcessorClass11readCommandEvE3__c_8>:
     dc5:	45 52 52 4f 52 3a 20 00                             ERROR: .

00000dcd <_ZZN17cmdProcessorClass11readCommandEvE3__c_7>:
     dcd:	30 2e 30 2e 30 2e 30 00                             0.0.0.0.

00000dd5 <_ZZN17cmdProcessorClass11readCommandEvE3__c_6>:
     dd5:	44 4e 53 20 61 64 64 72 65 73 73 20 73 65 74 20     DNS address set 
     de5:	74 6f 20 00                                         to .

00000de9 <_ZZN17cmdProcessorClass11readCommandEvE3__c_5>:
     de9:	20 64 6f 65 73 20 6e 6f 74 20 70 61 72 73 65 20      does not parse 
     df9:	74 6f 20 61 6e 20 49 50 20 61 64 64 72 65 73 73     to an IP address
     e09:	2e 00                                               ..

00000e0b <_ZZN17cmdProcessorClass11readCommandEvE3__c_4>:
     e0b:	45 52 52 4f 52 3a 20 00                             ERROR: .

00000e13 <_ZZN17cmdProcessorClass11readCommandEvE3__c_3>:
     e13:	30 2e 30 2e 30 2e 30 00                             0.0.0.0.

00000e1b <_ZZN17cmdProcessorClass11readCommandEvE3__c_2>:
     e1b:	49 50 20 61 64 64 72 65 73 73 20 73 65 74 20 74     IP address set t
     e2b:	6f 20 00                                            o .

00000e2e <_ZZN17cmdProcessorClass11readCommandEvE3__c_1>:
     e2e:	20 64 6f 65 73 20 6e 6f 74 20 70 61 72 73 65 20      does not parse 
     e3e:	74 6f 20 61 6e 20 49 50 20 61 64 64 72 65 73 73     to an IP address
     e4e:	2e 00                                               ..

00000e50 <_ZZN17cmdProcessorClass11readCommandEvE3__c_0>:
     e50:	45 52 52 4f 52 3a 20 00                             ERROR: .

00000e58 <_ZZN17cmdProcessorClass11readCommandEvE3__c>:
     e58:	48 65 6c 6c 6f 2c 20 77 6f 72 6c 64 21 00           Hello, world!.

00000e66 <_ZZN17EepromAccessClass15writeEEPromLongEilE3__c>:
     e66:	57 72 69 74 69 6e 67 20 74 68 65 20 66 6f 6c 6c     Writing the foll
     e76:	6f 77 69 6e 67 20 76 61 6c 75 65 73 20 74 6f 20     owing values to 
     e86:	45 45 50 52 4f 4d 3a 20 00                          EEPROM: .

00000e8f <_ZZN17EepromAccessClass14writeEEPromIntEiiE3__c>:
     e8f:	57 72 69 74 69 6e 67 20 74 68 65 20 66 6f 6c 6c     Writing the foll
     e9f:	6f 77 69 6e 67 20 76 61 6c 75 65 73 20 74 6f 20     owing values to 
     eaf:	45 45 50 52 4f 4d 3a 20 00                          EEPROM: .

00000eb8 <_ZZN15EthernetSupport15resetIPDefaultsEvE3__c_2>:
     eb8:	32 35 35 2e 32 35 35 2e 32 35 35 2e 30 00           255.255.255.0.

00000ec6 <_ZZN15EthernetSupport15resetIPDefaultsEvE3__c_1>:
     ec6:	31 39 32 2e 31 36 38 2e 30 2e 31 00                 192.168.0.1.

00000ed2 <_ZZN15EthernetSupport15resetIPDefaultsEvE3__c_0>:
     ed2:	31 39 32 2e 31 36 38 2e 30 2e 31 00                 192.168.0.1.

00000ede <_ZZN15EthernetSupport15resetIPDefaultsEvE3__c>:
     ede:	31 39 32 2e 31 36 38 2e 30 2e 31 35 30 00           192.168.0.150.

00000eec <_ZZN8MM3Class4initEvE3__c_7>:
     eec:	57 30 31 20 33 30 20 30 00                          W01 30 0.

00000ef5 <_ZZN8MM3Class4initEvE3__c_6>:
     ef5:	57 30 31 20 32 36 20 35 30 00                       W01 26 50.

00000eff <_ZZN8MM3Class4initEvE3__c_5>:
     eff:	57 30 31 20 32 35 20 30 00                          W01 25 0.

00000f08 <_ZZN8MM3Class4initEvE3__c_4>:
     f08:	57 30 31 20 31 32 20 31 35 00                       W01 12 15.

00000f12 <_ZZN8MM3Class4initEvE3__c_3>:
     f12:	57 30 31 20 31 31 20 35 37 36 00                    W01 11 576.

00000f1d <_ZZN8MM3Class4initEvE3__c_2>:
     f1d:	57 30 31 20 31 30 20 31 31 35 32 00                 W01 10 1152.

00000f29 <_ZZN8MM3Class4initEvE3__c_1>:
     f29:	57 30 31 20 30 39 20 31 30 00                       W01 09 10.

00000f33 <_ZZN8MM3Class4initEvE3__c_0>:
     f33:	57 30 31 20 30 37 20 31 00                          W01 07 1.

00000f3c <_ZZN8MM3Class4initEvE3__c>:
     f3c:	57 30 31 20 30 31 20 31 30 32 33 00                 W01 01 1023.

00000f48 <_ZZN21PositionFeedbackClass7readPosEvE3__c_1>:
     f48:	4c 61 74 65 73 74 20 70 6f 73 69 74 69 6f 6e 3a     Latest position:
     f58:	20 00                                                .

00000f5a <_ZZN21PositionFeedbackClass7readPosEvE3__c_0>:
     f5a:	53 74 6f 70 70 65 64 20 64 75 65 20 74 6f 20 70     Stopped due to p
     f6a:	6f 73 69 74 69 6f 6e 20 66 65 65 64 62 61 63 6b     osition feedback
     f7a:	20 76 61 6c 75 65 20 6e 6f 74 20 69 6e 63 72 65      value not incre
     f8a:	61 73 69 6e 67 20 64 75 72 69 6e 67 20 64 6f 77     asing during dow
     f9a:	6e 20 6d 6f 76 65 2e 00                             n move..

00000fa2 <_ZZN21PositionFeedbackClass7readPosEvE3__c>:
     fa2:	53 74 6f 70 70 65 64 20 64 75 65 20 74 6f 20 70     Stopped due to p
     fb2:	6f 73 69 74 69 6f 6e 20 66 65 65 64 62 61 63 6b     osition feedback
     fc2:	20 76 61 6c 75 65 20 6e 6f 74 20 64 65 63 72 65      value not decre
     fd2:	61 73 69 6e 67 20 64 75 72 69 6e 67 20 75 70 20     asing during up 
     fe2:	6d 6f 76 65 2e 00                                   move..

00000fe8 <_ZZ13checkIfMovingvE3__c>:
     fe8:	45 52 52 4f 52 3a 20 53 70 65 65 64 20 6e 6f 74     ERROR: Speed not
     ff8:	20 69 6e 63 72 65 61 73 69 6e 67 2e 20 50 6f 73      increasing. Pos
    1008:	73 69 62 6c 79 20 6c 6f 73 74 20 70 6f 73 69 74     sibly lost posit
    1018:	69 6f 6e 20 65 6e 63 6f 64 65 72 20 64 61 74 61     ion encoder data
    1028:	20 6f 72 20 64 72 75 6d 20 6e 6f 74 20 74 75 72      or drum not tur
    1038:	6e 69 6e 67 2e 00                                   ning..

0000103e <_ZZ4loopE3__c_16>:
    103e:	53 74 6f 70 70 65 64 20 64 75 65 20 74 6f 20 72     Stopped due to r
    104e:	65 61 63 68 69 6e 67 20 6d 61 78 69 6d 75 6d 20     eaching maximum 
    105e:	72 65 76 6f 6c 75 74 69 6f 6e 20 6c 69 6d 69 74     revolution limit
    106e:	2e 00                                               ..

00001070 <_ZZ4loopE3__c_15>:
    1070:	53 74 6f 70 70 65 64 20 64 75 65 20 74 6f 20 6f     Stopped due to o
    1080:	76 65 72 20 74 65 6d 70 65 72 61 74 75 72 65 2e     ver temperature.
	...

00001091 <_ZZ4loopE3__c_14>:
    1091:	53 74 6f 70 70 65 64 20 64 75 65 20 74 6f 20 65     Stopped due to e
    10a1:	78 63 65 65 64 69 6e 67 20 6d 6f 74 6f 72 20 63     xceeding motor c
    10b1:	75 72 72 65 6e 74 20 6c 69 6d 69 74 2e 00           urrent limit..

000010bf <_ZZ4loopE3__c_13>:
    10bf:	53 74 6f 70 70 65 64 20 64 75 65 20 74 6f 20 45     Stopped due to E
    10cf:	2d 53 54 4f 50 20 28 42 52 41 4b 45 29 20 69 6e     -STOP (BRAKE) in
    10df:	70 75 74 2e 00                                      put..

000010e4 <_ZZ4loopE3__c_12>:
    10e4:	53 74 6f 70 70 65 64 20 64 75 65 20 74 6f 20 4e     Stopped due to N
    10f4:	4f 5f 4c 4f 57 45 52 20 69 6e 70 75 74 2e 00        O_LOWER input..

00001103 <_ZZ4loopE3__c_11>:
    1103:	53 74 6f 70 70 65 64 20 64 75 65 20 74 6f 20 4e     Stopped due to N
    1113:	4f 5f 52 41 49 53 45 20 69 6e 70 75 74 2e 00        O_RAISE input..

00001122 <_ZZ4loopE3__c_10>:
    1122:	44 6f 77 6e 20 62 75 74 74 6f 6e 20 72 65 6c 65     Down button rele
    1132:	61 73 65 64 2e 00                                   ased..

00001138 <_ZZ4loopE3__c_9>:
    1138:	44 6f 77 6e 20 62 75 74 74 6f 6e 20 70 72 65 73     Down button pres
    1148:	73 65 64 2e 00                                      sed..

0000114d <_ZZ4loopE3__c_8>:
    114d:	55 70 20 62 75 74 74 6f 6e 20 72 65 6c 65 61 73     Up button releas
    115d:	65 64 2e 00                                         ed..

00001161 <_ZZ4loopE3__c_7>:
    1161:	55 70 20 62 75 74 74 6f 6e 20 70 72 65 73 73 65     Up button presse
    1171:	64 2e 00                                            d..

00001174 <_ZZ4loopE3__c_6>:
    1174:	53 74 6f 70 70 65 64 20 64 75 65 20 74 6f 20 6e     Stopped due to n
    1184:	6f 20 72 65 63 65 6e 74 20 70 6f 73 69 74 69 6f     o recent positio
    1194:	6e 20 66 65 65 64 62 61 63 6b 2e 00                 n feedback..

000011a0 <_ZZ4loopE3__c_5>:
    11a0:	50 6f 73 69 74 69 6f 6e 20 63 6c 69 65 6e 74 20     Position client 
    11b0:	64 69 73 63 6f 6e 6e 65 63 74 65 64 2e 00           disconnected..

000011be <_ZZ4loopE3__c_4>:
    11be:	50 6f 73 69 74 69 6f 6e 20 63 6c 69 65 6e 74 20     Position client 
    11ce:	63 6f 6e 6e 65 63 74 65 64 00                       connected.

000011d8 <_ZZ4loopE3__c_3>:
    11d8:	4f 75 74 70 75 74 20 63 6c 69 65 6e 74 20 64 69     Output client di
    11e8:	73 63 6f 6e 6e 65 63 74 65 64 2e 00                 sconnected..

000011f4 <_ZZ4loopE3__c_2>:
    11f4:	4f 75 74 70 75 74 20 63 6c 69 65 6e 74 20 63 6f     Output client co
    1204:	6e 6e 65 63 74 65 64 00                             nnected.

0000120c <_ZZ4loopE3__c_1>:
    120c:	43 6f 6d 6d 61 6e 64 20 63 6c 69 65 6e 74 20 64     Command client d
    121c:	69 73 63 6f 6e 6e 65 63 74 65 64 2e 00              isconnected..

00001229 <_ZZ4loopE3__c_0>:
    1229:	57 65 6c 63 6f 6d 65 20 74 6f 20 74 68 65 20 69     Welcome to the i
    1239:	6e 74 65 6c 6c 69 67 65 6e 74 20 77 69 6e 63 68     ntelligent winch
    1249:	20 63 6f 6d 6d 61 6e 64 20 73 65 72 76 65 72 2e      command server.
	...

0000125a <_ZZ4loopE3__c>:
    125a:	43 6f 6d 6d 61 6e 64 20 63 6c 69 65 6e 74 20 63     Command client c
    126a:	6f 6e 6e 65 63 74 65 64 00                          onnected.

00001273 <_ZZ5setupE3__c_14>:
    1273:	20 70 65 72 63 65 6e 74 20 66 6f 72 20 66 65 65      percent for fee
    1283:	64 62 61 63 6b 20 62 61 73 65 64 20 6d 6f 76 65     dback based move
    1293:	73 2e 00                                            s..

00001296 <_ZZ5setupE3__c_13>:
    1296:	4d 61 78 20 53 70 65 65 64 20 73 65 74 20 74 6f     Max Speed set to
    12a6:	20 00                                                .

000012a8 <_ZZ5setupE3__c_12>:
    12a8:	50 49 44 20 74 75 6e 69 6e 67 20 70 61 72 61 6d     PID tuning param
    12b8:	65 74 65 72 73 20 72 65 61 64 20 66 72 6f 6d 20     eters read from 
    12c8:	45 45 50 52 4f 4d 20 61 73 3a 00                    EEPROM as:.

000012d3 <_ZZ5setupE3__c_11>:
    12d3:	54 6f 74 61 6c 20 6d 6f 74 6f 72 20 72 75 6e 20     Total motor run 
    12e3:	74 69 6d 65 20 72 65 61 64 20 66 72 6f 6d 20 45     time read from E
    12f3:	45 50 72 6f 6d 20 61 73 20 00                       EProm as .

000012fd <_ZZ5setupE3__c_10>:
    12fd:	4d 61 78 20 72 65 76 6f 6c 75 74 69 6f 6e 73 20     Max revolutions 
    130d:	72 65 61 64 20 66 72 6f 6d 20 45 45 50 72 6f 6d     read from EEProm
    131d:	20 61 73 20 00                                       as .

00001322 <_ZZ5setupE3__c_9>:
    1322:	4d 6f 74 6f 72 20 52 50 4d 20 72 65 61 64 20 66     Motor RPM read f
    1332:	72 6f 6d 20 45 45 50 72 6f 6d 20 61 73 20 00        rom EEProm as .

00001341 <_ZZ5setupE3__c_8>:
    1341:	43 6f 75 6e 74 73 20 70 65 72 20 72 65 76 6f 6c     Counts per revol
    1351:	75 74 69 6f 6e 73 20 72 65 61 64 20 66 72 6f 6d     utions read from
    1361:	20 45 45 50 72 6f 6d 20 61 73 20 00                  EEProm as .

0000136d <_ZZ5setupE3__c_7>:
    136d:	50 6f 73 69 74 69 6f 6e 20 66 65 65 64 62 61 63     Position feedbac
    137d:	6b 20 70 6f 72 74 3a 20 00                          k port: .

00001386 <_ZZ5setupE3__c_6>:
    1386:	43 6f 6d 6d 61 6e 64 20 70 6f 72 74 3a 20 00        Command port: .

00001395 <_ZZ5setupE3__c_5>:
    1395:	4f 75 74 70 75 74 20 70 6f 72 74 3a 20 00           Output port: .

000013a3 <_ZZ5setupE3__c_4>:
    13a3:	45 74 68 65 72 6e 65 74 20 69 6e 69 74 69 61 6c     Ethernet initial
    13b3:	69 7a 65 64 20 6f 6e 3a 20 00                       ized on: .

000013bd <_ZZ5setupE3__c_3>:
    13bd:	45 52 52 4f 52 20 46 61 69 6c 65 64 20 74 6f 20     ERROR Failed to 
    13cd:	63 6f 6e 66 69 67 75 72 65 20 45 74 68 65 72 6e     configure Ethern
    13dd:	65 74 20 75 73 69 6e 67 20 44 48 43 50 00           et using DHCP.

000013eb <_ZZ5setupE3__c_2>:
    13eb:	45 52 52 4f 52 20 46 61 69 6c 65 64 20 74 6f 20     ERROR Failed to 
    13fb:	63 6f 6e 66 69 67 75 72 65 20 45 74 68 65 72 6e     configure Ethern
    140b:	65 74 20 75 73 69 6e 67 20 44 48 43 50 00           et using DHCP.

00001419 <_ZZ5setupE3__c_1>:
    1419:	45 52 52 4f 52 20 46 61 69 6c 65 64 20 74 6f 20     ERROR Failed to 
    1429:	63 6f 6e 66 69 67 75 72 65 20 45 74 68 65 72 6e     configure Ethern
    1439:	65 74 20 75 73 69 6e 67 20 44 48 43 50 00           et using DHCP.

00001447 <_ZZ5setupE3__c_0>:
    1447:	52 65 73 65 74 74 69 6e 67 20 49 50 20 63 6f 6e     Resetting IP con
    1457:	66 69 67 75 72 61 74 69 6f 6e 20 74 6f 20 64 65     figuration to de
    1467:	66 61 75 6c 74 73 2e 00                             faults..

0000146f <_ZZ5setupE3__c>:
    146f:	49 6e 74 65 6c 6c 69 67 65 6e 74 20 77 69 6e 63     Intelligent winc
    147f:	68 20 70 72 6f 63 65 73 73 6f 72 20 73 74 61 72     h processor star
    148f:	74 75 70 2e 00                                      tup..

00001494 <digital_pin_to_timer_PGM>:
    1494:	00 00 0a 0b 02 09 0c 0d 0e 08 07 03 04 01 00 00     ................
	...
    14c0:	12 11 10 00 00 00 00 00 00 00 00 00 00 00 00 00     ................
	...

000014da <digital_pin_to_bit_mask_PGM>:
    14da:	01 02 10 20 20 08 08 10 20 40 10 20 40 80 02 01     ...  ... @. @...
    14ea:	02 01 08 04 02 01 01 02 04 08 10 20 40 80 80 40     ........... @..@
    14fa:	20 10 08 04 02 01 80 04 02 01 80 40 20 10 08 04      ..........@ ...
    150a:	02 01 08 04 02 01 01 02 04 08 10 20 40 80 01 02     ........... @...
    151a:	04 08 10 20 40 80                                   ... @.

00001520 <digital_pin_to_port_PGM>:
    1520:	05 05 05 05 07 05 08 08 08 08 02 02 02 02 0a 0a     ................
    1530:	08 08 04 04 04 04 01 01 01 01 01 01 01 01 03 03     ................
    1540:	03 03 03 03 03 03 04 07 07 07 0c 0c 0c 0c 0c 0c     ................
    1550:	0c 0c 02 02 02 02 06 06 06 06 06 06 06 06 0b 0b     ................
    1560:	0b 0b 0b 0b 0b 0b                                   ......

00001566 <port_to_input_PGM>:
    1566:	00 00 20 00 23 00 26 00 29 00 2c 00 2f 00 32 00     .. .#.&.).,./.2.
    1576:	00 01 00 00 03 01 06 01 09 01                       ..........

00001580 <port_to_output_PGM>:
    1580:	00 00 22 00 25 00 28 00 2b 00 2e 00 31 00 34 00     ..".%.(.+...1.4.
    1590:	02 01 00 00 05 01 08 01 0b 01                       ..........

0000159a <port_to_mode_PGM>:
    159a:	00 00 21 00 24 00 27 00 2a 00 2d 00 30 00 33 00     ..!.$.'.*.-.0.3.
    15aa:	01 01 00 00 04 01 07 01 0a 01                       ..........

000015b4 <pstr_nan>:
    15b4:	4e 41 4e                                            NAN

000015b7 <pstr_inity>:
    15b7:	49 4e 49 54 59                                      INITY

000015bc <pstr_inf>:
    15bc:	49 4e 46                                            INF

000015bf <pwr_m10>:
    15bf:	cd cc cc 3d 0a d7 23 3c 17 b7 d1 38 77 cc 2b 32     ...=..#<...8w.+2
    15cf:	95 95 e6 24 1f b1 4f 0a                             ...$..O.

000015d7 <pwr_p10>:
    15d7:	00 00 20 41 00 00 c8 42 00 40 1c 46 20 bc be 4c     .. A...B.@.F ..L
    15e7:	ca 1b 0e 5a ae c5 9d 74 00                          ...Z...t.

000015f0 <__ctors_start>:
    15f0:	65 1a       	sub	r6, r21
    15f2:	f2 1c       	adc	r15, r2
    15f4:	92 28       	or	r9, r2
    15f6:	22 2c       	mov	r2, r2
    15f8:	0e 35       	cpi	r16, 0x5E	; 94
    15fa:	79 35       	cpi	r23, 0x59	; 89
    15fc:	7c 3a       	cpi	r23, 0xAC	; 172
    15fe:	35 3e       	cpi	r19, 0xE5	; 229
    1600:	1a 40       	sbci	r17, 0x0A	; 10
    1602:	a1 41       	sbci	r26, 0x11	; 17
    1604:	69 43       	sbci	r22, 0x39	; 57
    1606:	93 4d       	sbci	r25, 0xD3	; 211
    1608:	3e 4e       	sbci	r19, 0xEE	; 238
    160a:	e9 4e       	sbci	r30, 0xE9	; 233

0000160c <__ctors_end>:
    160c:	11 24       	eor	r1, r1
    160e:	1f be       	out	0x3f, r1	; 63
    1610:	cf ef       	ldi	r28, 0xFF	; 255
    1612:	d1 e2       	ldi	r29, 0x21	; 33
    1614:	de bf       	out	0x3e, r29	; 62
    1616:	cd bf       	out	0x3d, r28	; 61
    1618:	00 e0       	ldi	r16, 0x00	; 0
    161a:	0c bf       	out	0x3c, r16	; 60

0000161c <__do_copy_data>:
    161c:	16 e0       	ldi	r17, 0x06	; 6
    161e:	a0 e0       	ldi	r26, 0x00	; 0
    1620:	b2 e0       	ldi	r27, 0x02	; 2
    1622:	ec e8       	ldi	r30, 0x8C	; 140
    1624:	ff eb       	ldi	r31, 0xBF	; 191
    1626:	00 e0       	ldi	r16, 0x00	; 0
    1628:	0b bf       	out	0x3b, r16	; 59
    162a:	02 c0       	rjmp	.+4      	; 0x1630 <__do_copy_data+0x14>
    162c:	07 90       	elpm	r0, Z+
    162e:	0d 92       	st	X+, r0
    1630:	a6 38       	cpi	r26, 0x86	; 134
    1632:	b1 07       	cpc	r27, r17
    1634:	d9 f7       	brne	.-10     	; 0x162c <__do_copy_data+0x10>

00001636 <__do_clear_bss>:
    1636:	2a e0       	ldi	r18, 0x0A	; 10
    1638:	a6 e8       	ldi	r26, 0x86	; 134
    163a:	b6 e0       	ldi	r27, 0x06	; 6
    163c:	01 c0       	rjmp	.+2      	; 0x1640 <.do_clear_bss_start>

0000163e <.do_clear_bss_loop>:
    163e:	1d 92       	st	X+, r1

00001640 <.do_clear_bss_start>:
    1640:	ac 30       	cpi	r26, 0x0C	; 12
    1642:	b2 07       	cpc	r27, r18
    1644:	e1 f7       	brne	.-8      	; 0x163e <.do_clear_bss_loop>

00001646 <__do_global_ctors>:
    1646:	15 e1       	ldi	r17, 0x15	; 21
    1648:	cc e0       	ldi	r28, 0x0C	; 12
    164a:	d6 e1       	ldi	r29, 0x16	; 22
    164c:	00 e0       	ldi	r16, 0x00	; 0
    164e:	06 c0       	rjmp	.+12     	; 0x165c <__do_global_ctors+0x16>
    1650:	22 97       	sbiw	r28, 0x02	; 2
    1652:	01 09       	sbc	r16, r1
    1654:	fe 01       	movw	r30, r28
    1656:	0b bf       	out	0x3b, r16	; 59
    1658:	0e 94 c0 57 	call	0xaf80	; 0xaf80 <__tablejump_elpm__>
    165c:	c0 3f       	cpi	r28, 0xF0	; 240
    165e:	d1 07       	cpc	r29, r17
    1660:	80 e0       	ldi	r24, 0x00	; 0
    1662:	08 07       	cpc	r16, r24
    1664:	a9 f7       	brne	.-22     	; 0x1650 <__do_global_ctors+0xa>
    1666:	0e 94 f9 4e 	call	0x9df2	; 0x9df2 <main>
    166a:	0c 94 c4 5f 	jmp	0xbf88	; 0xbf88 <_exit>

0000166e <__bad_interrupt>:
    166e:	0c 94 00 00 	jmp	0	; 0x0 <__vectors>

00001672 <_ZN19CApplicationMonitorC1Eii>:
nBaseAddress: The address in the eeprom where crash data should be stored. 
nMaxEntries: The maximum number of crash entries that should be stored in the
eeprom. Storage of eeprom data will take up sizeof(CApplicationMonitorHeader) +
nMaxEntries * sizeof(CCrashReport) bytes in the eeprom. 
*/
CApplicationMonitor::CApplicationMonitor(int nBaseAddress, int nMaxEntries)
    1672:	fc 01       	movw	r30, r24
  : c_nBaseAddress(nBaseAddress), c_nMaxEntries(nMaxEntries)
    1674:	71 83       	std	Z+1, r23	; 0x01
    1676:	60 83       	st	Z, r22
    1678:	53 83       	std	Z+3, r21	; 0x03
    167a:	42 83       	std	Z+2, r20	; 0x02
{
  m_CrashReport.m_uData = 0;
    167c:	17 82       	std	Z+7, r1	; 0x07
    167e:	10 86       	std	Z+8, r1	; 0x08
    1680:	11 86       	std	Z+9, r1	; 0x09
    1682:	12 86       	std	Z+10, r1	; 0x0a
    1684:	08 95       	ret

00001686 <_ZN19CApplicationMonitor14EnableWatchdogENS_8ETimeoutE>:
resetting the micro. When the interrupt fires, we save the program counter
to the eeprom. 
*/
void CApplicationMonitor::EnableWatchdog(CApplicationMonitor::ETimeout Timeout)
{
  wdt_enable(Timeout); 
    1686:	63 ff       	sbrs	r22, 3
    1688:	02 c0       	rjmp	.+4      	; 0x168e <_ZN19CApplicationMonitor14EnableWatchdogENS_8ETimeoutE+0x8>
    168a:	88 e2       	ldi	r24, 0x28	; 40
    168c:	01 c0       	rjmp	.+2      	; 0x1690 <_ZN19CApplicationMonitor14EnableWatchdogENS_8ETimeoutE+0xa>
    168e:	88 e0       	ldi	r24, 0x08	; 8
    1690:	67 70       	andi	r22, 0x07	; 7
    1692:	68 2b       	or	r22, r24
    1694:	88 e1       	ldi	r24, 0x18	; 24
    1696:	90 e0       	ldi	r25, 0x00	; 0
    1698:	0f b6       	in	r0, 0x3f	; 63
    169a:	f8 94       	cli
    169c:	a8 95       	wdr
    169e:	80 93 60 00 	sts	0x0060, r24
    16a2:	0f be       	out	0x3f, r0	; 63
    16a4:	60 93 60 00 	sts	0x0060, r22
  WDTCSR |= _BV(WDIE);
    16a8:	80 91 60 00 	lds	r24, 0x0060
    16ac:	80 64       	ori	r24, 0x40	; 64
    16ae:	80 93 60 00 	sts	0x0060, r24
    16b2:	08 95       	ret

000016b4 <_ZN19CApplicationMonitor15DisableWatchdogEv>:
}

void CApplicationMonitor::DisableWatchdog()
{
  wdt_disable();
    16b4:	88 e1       	ldi	r24, 0x18	; 24
    16b6:	0f b6       	in	r0, 0x3f	; 63
    16b8:	f8 94       	cli
    16ba:	80 93 60 00 	sts	0x0060, r24
    16be:	10 92 60 00 	sts	0x0060, r1
    16c2:	0f be       	out	0x3f, r0	; 63
    16c4:	08 95       	ret

000016c6 <_ZNK19CApplicationMonitor8IAmAliveEv>:
Lets the watchdog timer know the program is still alive. Call this before
the watchdog timeout ellapses to prevent program being aborted. 
*/
void CApplicationMonitor::IAmAlive() const
{
  wdt_reset();
    16c6:	a8 95       	wdr
    16c8:	08 95       	ret

000016ca <_ZNK19CApplicationMonitor10PrintValueER5PrintPK19__FlashStringHelpermhb>:
  }
}

void CApplicationMonitor::PrintValue(Print &rDestination, const __FlashStringHelper *pLabel, 
                                     uint32_t uValue, uint8_t uRadix, bool bNewLine) const
{
    16ca:	8f 92       	push	r8
    16cc:	9f 92       	push	r9
    16ce:	af 92       	push	r10
    16d0:	bf 92       	push	r11
    16d2:	cf 92       	push	r12
    16d4:	ef 92       	push	r14
    16d6:	0f 93       	push	r16
    16d8:	1f 93       	push	r17
    16da:	cf 93       	push	r28
    16dc:	df 93       	push	r29
    16de:	eb 01       	movw	r28, r22
    16e0:	48 01       	movw	r8, r16
    16e2:	59 01       	movw	r10, r18
  rDestination.print(pLabel);
    16e4:	ba 01       	movw	r22, r20
    16e6:	ce 01       	movw	r24, r28
    16e8:	0e 94 43 4f 	call	0x9e86	; 0x9e86 <_ZN5Print5printEPK19__FlashStringHelper>
  rDestination.print(uValue, uRadix);
    16ec:	2e 2d       	mov	r18, r14
    16ee:	30 e0       	ldi	r19, 0x00	; 0
    16f0:	b5 01       	movw	r22, r10
    16f2:	a4 01       	movw	r20, r8
    16f4:	ce 01       	movw	r24, r28
    16f6:	0e 94 a5 50 	call	0xa14a	; 0xa14a <_ZN5Print5printEmi>
  if (bNewLine)
    16fa:	cc 20       	and	r12, r12
    16fc:	69 f0       	breq	.+26     	; 0x1718 <_ZNK19CApplicationMonitor10PrintValueER5PrintPK19__FlashStringHelpermhb+0x4e>
    rDestination.println();
    16fe:	ce 01       	movw	r24, r28
}
    1700:	df 91       	pop	r29
    1702:	cf 91       	pop	r28
    1704:	1f 91       	pop	r17
    1706:	0f 91       	pop	r16
    1708:	ef 90       	pop	r14
    170a:	cf 90       	pop	r12
    170c:	bf 90       	pop	r11
    170e:	af 90       	pop	r10
    1710:	9f 90       	pop	r9
    1712:	8f 90       	pop	r8
                                     uint32_t uValue, uint8_t uRadix, bool bNewLine) const
{
  rDestination.print(pLabel);
  rDestination.print(uValue, uRadix);
  if (bNewLine)
    rDestination.println();
    1714:	0c 94 88 4f 	jmp	0x9f10	; 0x9f10 <_ZN5Print7printlnEv>
}
    1718:	df 91       	pop	r29
    171a:	cf 91       	pop	r28
    171c:	1f 91       	pop	r17
    171e:	0f 91       	pop	r16
    1720:	ef 90       	pop	r14
    1722:	cf 90       	pop	r12
    1724:	bf 90       	pop	r11
    1726:	af 90       	pop	r10
    1728:	9f 90       	pop	r9
    172a:	8f 90       	pop	r8
    172c:	08 95       	ret

0000172e <_ZNK19CApplicationMonitor19GetAddressForReportEi>:

int CApplicationMonitor::GetAddressForReport(int nReport) const
{
  int nAddress;

  nAddress = c_nBaseAddress + sizeof(CApplicationMonitorHeader);
    172e:	fc 01       	movw	r30, r24
    1730:	20 81       	ld	r18, Z
    1732:	31 81       	ldd	r19, Z+1	; 0x01
    1734:	2e 5f       	subi	r18, 0xFE	; 254
    1736:	3f 4f       	sbci	r19, 0xFF	; 255
  if (nReport < c_nMaxEntries)
    1738:	82 81       	ldd	r24, Z+2	; 0x02
    173a:	93 81       	ldd	r25, Z+3	; 0x03
    173c:	68 17       	cp	r22, r24
    173e:	79 07       	cpc	r23, r25
    1740:	14 f0       	brlt	.+4      	; 0x1746 <_ZNK19CApplicationMonitor19GetAddressForReportEi+0x18>

int CApplicationMonitor::GetAddressForReport(int nReport) const
{
  int nAddress;

  nAddress = c_nBaseAddress + sizeof(CApplicationMonitorHeader);
    1742:	c9 01       	movw	r24, r18
    1744:	08 95       	ret
  if (nReport < c_nMaxEntries)
    nAddress += nReport * sizeof(m_CrashReport);
    1746:	47 e0       	ldi	r20, 0x07	; 7
    1748:	46 9f       	mul	r20, r22
    174a:	c0 01       	movw	r24, r0
    174c:	47 9f       	mul	r20, r23
    174e:	90 0d       	add	r25, r0
    1750:	11 24       	eor	r1, r1
    1752:	82 0f       	add	r24, r18
    1754:	93 1f       	adc	r25, r19
  return nAddress;
}
    1756:	08 95       	ret

00001758 <_ZNK19CApplicationMonitor9ReadBlockEiPvh>:

void CApplicationMonitor::ReadBlock(int nBaseAddress, void *pData, uint8_t uSize) const
{
    1758:	ef 92       	push	r14
    175a:	ff 92       	push	r15
    175c:	0f 93       	push	r16
    175e:	1f 93       	push	r17
    1760:	cf 93       	push	r28
    1762:	df 93       	push	r29
    1764:	1f 92       	push	r1
    1766:	cd b7       	in	r28, 0x3d	; 61
    1768:	de b7       	in	r29, 0x3e	; 62
    176a:	8b 01       	movw	r16, r22
  uint8_t *puData = (uint8_t *)pData;
  while (uSize --)
    176c:	7a 01       	movw	r14, r20
    176e:	04 1b       	sub	r16, r20
    1770:	15 0b       	sbc	r17, r21
    1772:	21 50       	subi	r18, 0x01	; 1
    1774:	58 f0       	brcs	.+22     	; 0x178c <_ZNK19CApplicationMonitor9ReadBlockEiPvh+0x34>
    *puData++ = eeprom_read_byte((const uint8_t *)nBaseAddress++);
    1776:	c8 01       	movw	r24, r16
    1778:	8e 0d       	add	r24, r14
    177a:	9f 1d       	adc	r25, r15
    177c:	29 83       	std	Y+1, r18	; 0x01
    177e:	0e 94 ed 5e 	call	0xbdda	; 0xbdda <__eerd_byte_m2560>
    1782:	f7 01       	movw	r30, r14
    1784:	81 93       	st	Z+, r24
    1786:	7f 01       	movw	r14, r30
    1788:	29 81       	ldd	r18, Y+1	; 0x01
    178a:	f3 cf       	rjmp	.-26     	; 0x1772 <_ZNK19CApplicationMonitor9ReadBlockEiPvh+0x1a>
}
    178c:	0f 90       	pop	r0
    178e:	df 91       	pop	r29
    1790:	cf 91       	pop	r28
    1792:	1f 91       	pop	r17
    1794:	0f 91       	pop	r16
    1796:	ff 90       	pop	r15
    1798:	ef 90       	pop	r14
    179a:	08 95       	ret

0000179c <_ZNK19CApplicationMonitor10LoadHeaderER25CApplicationMonitorHeader>:
  while (true)
    ;
}

void CApplicationMonitor::LoadHeader(CApplicationMonitorHeader &rReportHeader) const
{
    179c:	0f 93       	push	r16
    179e:	1f 93       	push	r17
    17a0:	cf 93       	push	r28
    17a2:	df 93       	push	r29
    17a4:	8c 01       	movw	r16, r24
    17a6:	eb 01       	movw	r28, r22
  ReadBlock(c_nBaseAddress, &rReportHeader, sizeof(rReportHeader));
    17a8:	fc 01       	movw	r30, r24
    17aa:	60 81       	ld	r22, Z
    17ac:	71 81       	ldd	r23, Z+1	; 0x01
    17ae:	22 e0       	ldi	r18, 0x02	; 2
    17b0:	ae 01       	movw	r20, r28
    17b2:	d2 df       	rcall	.-92     	; 0x1758 <_ZNK19CApplicationMonitor9ReadBlockEiPvh>
    17b4:	28 81       	ld	r18, Y

  // Ensure the report structure is valid. 
  if (rReportHeader.m_uSavedReports == 0xff) // eeprom is 0xff when uninitialized
    17b6:	2f 3f       	cpi	r18, 0xFF	; 255
    17b8:	11 f4       	brne	.+4      	; 0x17be <_ZNK19CApplicationMonitor10LoadHeaderER25CApplicationMonitorHeader+0x22>
    17ba:	18 82       	st	Y, r1
    rReportHeader.m_uSavedReports = 0;
    17bc:	08 c0       	rjmp	.+16     	; 0x17ce <_ZNK19CApplicationMonitor10LoadHeaderER25CApplicationMonitorHeader+0x32>
    17be:	f8 01       	movw	r30, r16
  else if (rReportHeader.m_uSavedReports > c_nMaxEntries)
    17c0:	82 81       	ldd	r24, Z+2	; 0x02
    17c2:	93 81       	ldd	r25, Z+3	; 0x03
    17c4:	30 e0       	ldi	r19, 0x00	; 0
    17c6:	82 17       	cp	r24, r18
    17c8:	93 07       	cpc	r25, r19
    17ca:	0c f4       	brge	.+2      	; 0x17ce <_ZNK19CApplicationMonitor10LoadHeaderER25CApplicationMonitorHeader+0x32>
    17cc:	88 83       	st	Y, r24
    rReportHeader.m_uSavedReports = c_nMaxEntries;
    17ce:	29 81       	ldd	r18, Y+1	; 0x01

  if (rReportHeader.m_uNextReport >= c_nMaxEntries)
    17d0:	30 e0       	ldi	r19, 0x00	; 0
    17d2:	f8 01       	movw	r30, r16
    17d4:	82 81       	ldd	r24, Z+2	; 0x02
    17d6:	93 81       	ldd	r25, Z+3	; 0x03
    17d8:	28 17       	cp	r18, r24
    17da:	39 07       	cpc	r19, r25
    17dc:	0c f0       	brlt	.+2      	; 0x17e0 <_ZNK19CApplicationMonitor10LoadHeaderER25CApplicationMonitorHeader+0x44>
    17de:	19 82       	std	Y+1, r1	; 0x01
    rReportHeader.m_uNextReport = 0;
    17e0:	df 91       	pop	r29
}
    17e2:	cf 91       	pop	r28
    17e4:	1f 91       	pop	r17
    17e6:	0f 91       	pop	r16
    17e8:	08 95       	ret

000017ea <_ZNK19CApplicationMonitor10LoadReportEiR12CCrashReport>:
    17ea:	0f 93       	push	r16
{
  WriteBlock(GetAddressForReport(nReportSlot), &m_CrashReport, sizeof(m_CrashReport));
}

void CApplicationMonitor::LoadReport(int nReport, CCrashReport &rState) const
{
    17ec:	1f 93       	push	r17
    17ee:	cf 93       	push	r28
    17f0:	df 93       	push	r29
    17f2:	8c 01       	movw	r16, r24
    17f4:	ea 01       	movw	r28, r20
  ReadBlock(GetAddressForReport(nReport), &rState, sizeof(rState));
    17f6:	9b df       	rcall	.-202    	; 0x172e <_ZNK19CApplicationMonitor19GetAddressForReportEi>
    17f8:	27 e0       	ldi	r18, 0x07	; 7
    17fa:	ae 01       	movw	r20, r28
    17fc:	bc 01       	movw	r22, r24
    17fe:	c8 01       	movw	r24, r16
    1800:	ab df       	rcall	.-170    	; 0x1758 <_ZNK19CApplicationMonitor9ReadBlockEiPvh>
    1802:	88 81       	ld	r24, Y
    1804:	9a 81       	ldd	r25, Y+2	; 0x02

  // The return address is reversed when we read it off the stack. Correct that. 
  // by reversing the byte order. Assuming PROGRAM_COUNTER_SIZE is 2 or 3. 
  uint8_t uTemp;
  uTemp = rState.m_auAddress[0];
    1806:	98 83       	st	Y, r25
  rState.m_auAddress[0] = rState.m_auAddress[PROGRAM_COUNTER_SIZE - 1];
    1808:	8a 83       	std	Y+2, r24	; 0x02
    180a:	df 91       	pop	r29
  rState.m_auAddress[PROGRAM_COUNTER_SIZE - 1] = uTemp;
    180c:	cf 91       	pop	r28
}
    180e:	1f 91       	pop	r17
    1810:	0f 91       	pop	r16
    1812:	08 95       	ret

00001814 <_ZNK19CApplicationMonitor4DumpER5Printb>:
    1814:	7f 92       	push	r7
    1816:	8f 92       	push	r8
{
  wdt_reset();
}

void CApplicationMonitor::Dump(Print &rDestination, bool bOnlyIfPresent) const
{
    1818:	9f 92       	push	r9
    181a:	af 92       	push	r10
    181c:	bf 92       	push	r11
    181e:	cf 92       	push	r12
    1820:	df 92       	push	r13
    1822:	ef 92       	push	r14
    1824:	ff 92       	push	r15
    1826:	0f 93       	push	r16
    1828:	1f 93       	push	r17
    182a:	cf 93       	push	r28
    182c:	df 93       	push	r29
    182e:	cd b7       	in	r28, 0x3d	; 61
    1830:	de b7       	in	r29, 0x3e	; 62
    1832:	2e 97       	sbiw	r28, 0x0e	; 14
    1834:	0f b6       	in	r0, 0x3f	; 63
    1836:	f8 94       	cli
    1838:	de bf       	out	0x3e, r29	; 62
    183a:	0f be       	out	0x3f, r0	; 63
    183c:	cd bf       	out	0x3d, r28	; 61
    183e:	4c 01       	movw	r8, r24
    1840:	5b 01       	movw	r10, r22
  CApplicationMonitorHeader Header;
  CCrashReport Report;
  uint8_t uReport;
  uint32_t uAddress;

  LoadHeader(Header);
    1842:	be 01       	movw	r22, r28
    1844:	64 5f       	subi	r22, 0xF4	; 244
    1846:	7f 4f       	sbci	r23, 0xFF	; 255
    1848:	4e 87       	std	Y+14, r20	; 0x0e
    184a:	a8 df       	rcall	.-176    	; 0x179c <_ZNK19CApplicationMonitor10LoadHeaderER25CApplicationMonitorHeader>
    184c:	4e 85       	ldd	r20, Y+14	; 0x0e
  if (!bOnlyIfPresent || Header.m_uSavedReports != 0)
    184e:	44 23       	and	r20, r20
    1850:	21 f0       	breq	.+8      	; 0x185a <_ZNK19CApplicationMonitor4DumpER5Printb+0x46>
    1852:	8c 85       	ldd	r24, Y+12	; 0x0c
    1854:	88 23       	and	r24, r24
    1856:	09 f4       	brne	.+2      	; 0x185a <_ZNK19CApplicationMonitor4DumpER5Printb+0x46>
    1858:	6b c0       	rjmp	.+214    	; 0x1930 <_ZNK19CApplicationMonitor4DumpER5Printb+0x11c>
    185a:	68 e6       	ldi	r22, 0x68	; 104
  {
    rDestination.println(F("Application Monitor"));
    185c:	71 e0       	ldi	r23, 0x01	; 1
    185e:	c5 01       	movw	r24, r10
    1860:	0e 94 9a 4f 	call	0x9f34	; 0x9f34 <_ZN5Print7printlnEPK19__FlashStringHelper>
    1864:	64 e5       	ldi	r22, 0x54	; 84
    rDestination.println(F("-------------------"));
    1866:	71 e0       	ldi	r23, 0x01	; 1
    1868:	c5 01       	movw	r24, r10
    186a:	0e 94 9a 4f 	call	0x9f34	; 0x9f34 <_ZN5Print7printlnEPK19__FlashStringHelper>
    186e:	0c 85       	ldd	r16, Y+12	; 0x0c
    PrintValue(rDestination, F("Saved reports: "), Header.m_uSavedReports, DEC, true);
    1870:	10 e0       	ldi	r17, 0x00	; 0
    1872:	20 e0       	ldi	r18, 0x00	; 0
    1874:	30 e0       	ldi	r19, 0x00	; 0
    1876:	cc 24       	eor	r12, r12
    1878:	c3 94       	inc	r12
    187a:	4a e0       	ldi	r20, 0x0A	; 10
    187c:	e4 2e       	mov	r14, r20
    187e:	44 e4       	ldi	r20, 0x44	; 68
    1880:	51 e0       	ldi	r21, 0x01	; 1
    1882:	b5 01       	movw	r22, r10
    1884:	c4 01       	movw	r24, r8
    1886:	21 df       	rcall	.-446    	; 0x16ca <_ZNK19CApplicationMonitor10PrintValueER5PrintPK19__FlashStringHelpermhb>
    1888:	0d 85       	ldd	r16, Y+13	; 0x0d
    188a:	10 e0       	ldi	r17, 0x00	; 0
    PrintValue(rDestination, F("Next report: "), Header.m_uNextReport, DEC, true);
    188c:	20 e0       	ldi	r18, 0x00	; 0
    188e:	30 e0       	ldi	r19, 0x00	; 0
    1890:	46 e3       	ldi	r20, 0x36	; 54
    1892:	51 e0       	ldi	r21, 0x01	; 1
    1894:	b5 01       	movw	r22, r10
    1896:	c4 01       	movw	r24, r8
    1898:	18 df       	rcall	.-464    	; 0x16ca <_ZNK19CApplicationMonitor10PrintValueER5PrintPK19__FlashStringHelpermhb>
    189a:	71 2c       	mov	r7, r1
    189c:	8c 85       	ldd	r24, Y+12	; 0x0c
    189e:	78 16       	cp	r7, r24

    for (uReport = 0; uReport < Header.m_uSavedReports; ++uReport)
    18a0:	08 f0       	brcs	.+2      	; 0x18a4 <_ZNK19CApplicationMonitor4DumpER5Printb+0x90>
    18a2:	46 c0       	rjmp	.+140    	; 0x1930 <_ZNK19CApplicationMonitor4DumpER5Printb+0x11c>
    18a4:	67 2d       	mov	r22, r7
    18a6:	70 e0       	ldi	r23, 0x00	; 0
    18a8:	ae 01       	movw	r20, r28
    {
      LoadReport(uReport, Report);
    18aa:	4f 5f       	subi	r20, 0xFF	; 255
    18ac:	5f 4f       	sbci	r21, 0xFF	; 255
    18ae:	c4 01       	movw	r24, r8
    18b0:	9c df       	rcall	.-200    	; 0x17ea <_ZNK19CApplicationMonitor10LoadReportEiR12CCrashReport>
    18b2:	4a e0       	ldi	r20, 0x0A	; 10
    18b4:	50 e0       	ldi	r21, 0x00	; 0
    18b6:	67 2d       	mov	r22, r7
    18b8:	c5 01       	movw	r24, r10

      rDestination.print(uReport);
    18ba:	0e 94 b1 50 	call	0xa162	; 0xa162 <_ZN5Print5printEhi>
    18be:	18 86       	std	Y+8, r1	; 0x08
    18c0:	19 86       	std	Y+9, r1	; 0x09
    18c2:	1a 86       	std	Y+10, r1	; 0x0a
    18c4:	1b 86       	std	Y+11, r1	; 0x0b
      uAddress = 0;
    18c6:	89 81       	ldd	r24, Y+1	; 0x01
    18c8:	9a 81       	ldd	r25, Y+2	; 0x02
    18ca:	ab 81       	ldd	r26, Y+3	; 0x03
    18cc:	88 87       	std	Y+8, r24	; 0x08
      memcpy(&uAddress, Report.m_auAddress, PROGRAM_COUNTER_SIZE);
    18ce:	99 87       	std	Y+9, r25	; 0x09
    18d0:	aa 87       	std	Y+10, r26	; 0x0a
    18d2:	c8 84       	ldd	r12, Y+8	; 0x08
    18d4:	d9 84       	ldd	r13, Y+9	; 0x09
    18d6:	ea 84       	ldd	r14, Y+10	; 0x0a
    18d8:	fb 84       	ldd	r15, Y+11	; 0x0b
      PrintValue(rDestination, F(": word-address=0x"), uAddress, HEX, false);
    18da:	64 e2       	ldi	r22, 0x24	; 36
    18dc:	71 e0       	ldi	r23, 0x01	; 1
    18de:	c5 01       	movw	r24, r10
    18e0:	0e 94 43 4f 	call	0x9e86	; 0x9e86 <_ZN5Print5printEPK19__FlashStringHelper>
}

void CApplicationMonitor::PrintValue(Print &rDestination, const __FlashStringHelper *pLabel, 
                                     uint32_t uValue, uint8_t uRadix, bool bNewLine) const
{
  rDestination.print(pLabel);
    18e4:	20 e1       	ldi	r18, 0x10	; 16
    18e6:	30 e0       	ldi	r19, 0x00	; 0
    18e8:	b7 01       	movw	r22, r14
    18ea:	a6 01       	movw	r20, r12
  rDestination.print(uValue, uRadix);
    18ec:	c5 01       	movw	r24, r10
    18ee:	0e 94 a5 50 	call	0xa14a	; 0xa14a <_ZN5Print5printEmi>
    18f2:	62 e1       	ldi	r22, 0x12	; 18
    18f4:	71 e0       	ldi	r23, 0x01	; 1
    18f6:	c5 01       	movw	r24, r10
    18f8:	0e 94 43 4f 	call	0x9e86	; 0x9e86 <_ZN5Print5printEPK19__FlashStringHelper>
}

void CApplicationMonitor::PrintValue(Print &rDestination, const __FlashStringHelper *pLabel, 
                                     uint32_t uValue, uint8_t uRadix, bool bNewLine) const
{
  rDestination.print(pLabel);
    18fc:	b7 01       	movw	r22, r14
    18fe:	a6 01       	movw	r20, r12
    1900:	44 0f       	add	r20, r20
    1902:	55 1f       	adc	r21, r21

      rDestination.print(uReport);
      uAddress = 0;
      memcpy(&uAddress, Report.m_auAddress, PROGRAM_COUNTER_SIZE);
      PrintValue(rDestination, F(": word-address=0x"), uAddress, HEX, false);
      PrintValue(rDestination, F(": byte-address=0x"), uAddress * 2, HEX, false);
    1904:	66 1f       	adc	r22, r22
    1906:	77 1f       	adc	r23, r23
    1908:	20 e1       	ldi	r18, 0x10	; 16
    190a:	30 e0       	ldi	r19, 0x00	; 0
    190c:	c5 01       	movw	r24, r10
    190e:	0e 94 a5 50 	call	0xa14a	; 0xa14a <_ZN5Print5printEmi>

void CApplicationMonitor::PrintValue(Print &rDestination, const __FlashStringHelper *pLabel, 
                                     uint32_t uValue, uint8_t uRadix, bool bNewLine) const
{
  rDestination.print(pLabel);
  rDestination.print(uValue, uRadix);
    1912:	0c 81       	ldd	r16, Y+4	; 0x04
    1914:	1d 81       	ldd	r17, Y+5	; 0x05
    1916:	2e 81       	ldd	r18, Y+6	; 0x06
    1918:	3f 81       	ldd	r19, Y+7	; 0x07
      rDestination.print(uReport);
      uAddress = 0;
      memcpy(&uAddress, Report.m_auAddress, PROGRAM_COUNTER_SIZE);
      PrintValue(rDestination, F(": word-address=0x"), uAddress, HEX, false);
      PrintValue(rDestination, F(": byte-address=0x"), uAddress * 2, HEX, false);
      PrintValue(rDestination, F(", data=0x"), Report.m_uData, HEX, true);
    191a:	cc 24       	eor	r12, r12
    191c:	c3 94       	inc	r12
    191e:	90 e1       	ldi	r25, 0x10	; 16
    1920:	e9 2e       	mov	r14, r25
    1922:	48 e0       	ldi	r20, 0x08	; 8
    1924:	51 e0       	ldi	r21, 0x01	; 1
    1926:	b5 01       	movw	r22, r10
    1928:	c4 01       	movw	r24, r8
    192a:	cf de       	rcall	.-610    	; 0x16ca <_ZNK19CApplicationMonitor10PrintValueER5PrintPK19__FlashStringHelpermhb>
    192c:	73 94       	inc	r7
    192e:	b6 cf       	rjmp	.-148    	; 0x189c <_ZNK19CApplicationMonitor4DumpER5Printb+0x88>
    1930:	2e 96       	adiw	r28, 0x0e	; 14
    1932:	0f b6       	in	r0, 0x3f	; 63
    1934:	f8 94       	cli
    rDestination.println(F("Application Monitor"));
    rDestination.println(F("-------------------"));
    PrintValue(rDestination, F("Saved reports: "), Header.m_uSavedReports, DEC, true);
    PrintValue(rDestination, F("Next report: "), Header.m_uNextReport, DEC, true);

    for (uReport = 0; uReport < Header.m_uSavedReports; ++uReport)
    1936:	de bf       	out	0x3e, r29	; 62
    1938:	0f be       	out	0x3f, r0	; 63
      PrintValue(rDestination, F(": word-address=0x"), uAddress, HEX, false);
      PrintValue(rDestination, F(": byte-address=0x"), uAddress * 2, HEX, false);
      PrintValue(rDestination, F(", data=0x"), Report.m_uData, HEX, true);
    }
  }
}
    193a:	cd bf       	out	0x3d, r28	; 61
    193c:	df 91       	pop	r29
    193e:	cf 91       	pop	r28
    1940:	1f 91       	pop	r17
    1942:	0f 91       	pop	r16
    1944:	ff 90       	pop	r15
    1946:	ef 90       	pop	r14
    1948:	df 90       	pop	r13
    194a:	cf 90       	pop	r12
    194c:	bf 90       	pop	r11
    194e:	af 90       	pop	r10
    1950:	9f 90       	pop	r9
    1952:	8f 90       	pop	r8
    1954:	7f 90       	pop	r7
    1956:	08 95       	ret

00001958 <_ZNK19CApplicationMonitor10WriteBlockEiPKvh>:
    1958:	ef 92       	push	r14
    195a:	ff 92       	push	r15
    195c:	0f 93       	push	r16
    195e:	1f 93       	push	r17
    1960:	cf 93       	push	r28
  while (uSize --)
    *puData++ = eeprom_read_byte((const uint8_t *)nBaseAddress++);
}

void CApplicationMonitor::WriteBlock(int nBaseAddress, const void *pData, uint8_t uSize) const
{
    1962:	df 93       	push	r29
    1964:	1f 92       	push	r1
    1966:	cd b7       	in	r28, 0x3d	; 61
    1968:	de b7       	in	r29, 0x3e	; 62
    196a:	7b 01       	movw	r14, r22
    196c:	8a 01       	movw	r16, r20
    196e:	26 0f       	add	r18, r22
  const uint8_t *puData = (const uint8_t *)pData;
  while (uSize --)
    1970:	2e 15       	cp	r18, r14
    1972:	61 f0       	breq	.+24     	; 0x198c <_ZNK19CApplicationMonitor10WriteBlockEiPKvh+0x34>
    eeprom_write_byte((uint8_t *)nBaseAddress++, *puData++);
    1974:	f8 01       	movw	r30, r16
    1976:	61 91       	ld	r22, Z+
    1978:	8f 01       	movw	r16, r30
    197a:	c7 01       	movw	r24, r14
    197c:	29 83       	std	Y+1, r18	; 0x01
    197e:	0e 94 f5 5e 	call	0xbdea	; 0xbdea <__eewr_byte_m2560>
    1982:	ff ef       	ldi	r31, 0xFF	; 255
    1984:	ef 1a       	sub	r14, r31
    1986:	ff 0a       	sbc	r15, r31
    1988:	29 81       	ldd	r18, Y+1	; 0x01
    198a:	f2 cf       	rjmp	.-28     	; 0x1970 <_ZNK19CApplicationMonitor10WriteBlockEiPKvh+0x18>
}
    198c:	0f 90       	pop	r0
    198e:	df 91       	pop	r29
    1990:	cf 91       	pop	r28
    1992:	1f 91       	pop	r17
    1994:	0f 91       	pop	r16
    1996:	ff 90       	pop	r15
    1998:	ef 90       	pop	r14
    199a:	08 95       	ret

0000199c <_ZNK19CApplicationMonitor10SaveHeaderERK25CApplicationMonitorHeader>:
  if (rReportHeader.m_uNextReport >= c_nMaxEntries)
    rReportHeader.m_uNextReport = 0;
}

void CApplicationMonitor::SaveHeader(const CApplicationMonitorHeader &rReportHeader) const
{
    199c:	ab 01       	movw	r20, r22
  WriteBlock(c_nBaseAddress, &rReportHeader, sizeof(rReportHeader));
    199e:	fc 01       	movw	r30, r24
    19a0:	60 81       	ld	r22, Z
    19a2:	71 81       	ldd	r23, Z+1	; 0x01
    19a4:	22 e0       	ldi	r18, 0x02	; 2
    19a6:	d8 cf       	rjmp	.-80     	; 0x1958 <_ZNK19CApplicationMonitor10WriteBlockEiPKvh>

000019a8 <_ZNK19CApplicationMonitor17SaveCurrentReportEi>:
    19a8:	cf 93       	push	r28
}

void CApplicationMonitor::SaveCurrentReport(int nReportSlot) const
{
    19aa:	df 93       	push	r29
    19ac:	ec 01       	movw	r28, r24
  WriteBlock(GetAddressForReport(nReportSlot), &m_CrashReport, sizeof(m_CrashReport));
    19ae:	bf de       	rcall	.-642    	; 0x172e <_ZNK19CApplicationMonitor19GetAddressForReportEi>
    19b0:	ae 01       	movw	r20, r28
    19b2:	4c 5f       	subi	r20, 0xFC	; 252
    19b4:	5f 4f       	sbci	r21, 0xFF	; 255
    19b6:	27 e0       	ldi	r18, 0x07	; 7
    19b8:	bc 01       	movw	r22, r24
    19ba:	ce 01       	movw	r24, r28
    19bc:	df 91       	pop	r29
}
    19be:	cf 91       	pop	r28
    19c0:	cb cf       	rjmp	.-106    	; 0x1958 <_ZNK19CApplicationMonitor10WriteBlockEiPKvh>

000019c2 <_ZN19CApplicationMonitor24WatchdogInterruptHandlerEPh>:
  WriteBlock(c_nBaseAddress, &rReportHeader, sizeof(rReportHeader));
}

void CApplicationMonitor::SaveCurrentReport(int nReportSlot) const
{
  WriteBlock(GetAddressForReport(nReportSlot), &m_CrashReport, sizeof(m_CrashReport));
    19c2:	cf 93       	push	r28
    19c4:	df 93       	push	r29
  if (bNewLine)
    rDestination.println();
}

void CApplicationMonitor::WatchdogInterruptHandler(uint8_t *puProgramAddress)
{
    19c6:	1f 92       	push	r1
    19c8:	1f 92       	push	r1
    19ca:	cd b7       	in	r28, 0x3d	; 61
    19cc:	de b7       	in	r29, 0x3e	; 62
    19ce:	8c 01       	movw	r16, r24
    19d0:	7b 01       	movw	r14, r22
  CApplicationMonitorHeader Header;

  LoadHeader(Header);
    19d2:	be 01       	movw	r22, r28
    19d4:	6f 5f       	subi	r22, 0xFF	; 255
    19d6:	7f 4f       	sbci	r23, 0xFF	; 255
    19d8:	e1 de       	rcall	.-574    	; 0x179c <_ZNK19CApplicationMonitor10LoadHeaderER25CApplicationMonitorHeader>
    19da:	f7 01       	movw	r30, r14
  memcpy(m_CrashReport.m_auAddress, puProgramAddress, PROGRAM_COUNTER_SIZE);
    19dc:	20 81       	ld	r18, Z
    19de:	31 81       	ldd	r19, Z+1	; 0x01
    19e0:	42 81       	ldd	r20, Z+2	; 0x02
    19e2:	f8 01       	movw	r30, r16
    19e4:	24 83       	std	Z+4, r18	; 0x04
    19e6:	35 83       	std	Z+5, r19	; 0x05
    19e8:	46 83       	std	Z+6, r20	; 0x06
    19ea:	6a 81       	ldd	r22, Y+2	; 0x02
  SaveCurrentReport(Header.m_uNextReport);
    19ec:	70 e0       	ldi	r23, 0x00	; 0
    19ee:	c8 01       	movw	r24, r16
    19f0:	db df       	rcall	.-74     	; 0x19a8 <_ZNK19CApplicationMonitor17SaveCurrentReportEi>
    19f2:	2a 81       	ldd	r18, Y+2	; 0x02
    19f4:	2f 5f       	subi	r18, 0xFF	; 255

  // Update header for next time. 
  ++Header.m_uNextReport;
    19f6:	2a 83       	std	Y+2, r18	; 0x02
    19f8:	89 81       	ldd	r24, Y+1	; 0x01
    19fa:	8f 5f       	subi	r24, 0xFF	; 255
  ++Header.m_uSavedReports;
    19fc:	89 83       	std	Y+1, r24	; 0x01
    19fe:	30 e0       	ldi	r19, 0x00	; 0
    1a00:	f8 01       	movw	r30, r16
  if (Header.m_uNextReport >= c_nMaxEntries)
    1a02:	82 81       	ldd	r24, Z+2	; 0x02
    1a04:	93 81       	ldd	r25, Z+3	; 0x03
    1a06:	28 17       	cp	r18, r24
    1a08:	39 07       	cpc	r19, r25
    1a0a:	0c f0       	brlt	.+2      	; 0x1a0e <_ZN19CApplicationMonitor24WatchdogInterruptHandlerEPh+0x4c>
    1a0c:	1a 82       	std	Y+2, r1	; 0x02
    1a0e:	be 01       	movw	r22, r28
    Header.m_uNextReport = 0;
    1a10:	6f 5f       	subi	r22, 0xFF	; 255
  SaveHeader(Header);
    1a12:	7f 4f       	sbci	r23, 0xFF	; 255
    1a14:	c8 01       	movw	r24, r16
    1a16:	c2 df       	rcall	.-124    	; 0x199c <_ZNK19CApplicationMonitor10SaveHeaderERK25CApplicationMonitorHeader>
    1a18:	0e 94 0a 30 	call	0x6014	; 0x6014 <_Z9saveStatev>
    1a1c:	2b e0       	ldi	r18, 0x0B	; 11

  // Attempt to save some of the data we have been keeping
  extern void saveState();
  saveState();
    1a1e:	88 e1       	ldi	r24, 0x18	; 24
    1a20:	90 e0       	ldi	r25, 0x00	; 0
  
  // Wait for next watchdog time out to reset system.
  // If the watch dog timeout is too short, it doesn't
  // give the program much time to reset it before the
  // next timeout. So we can be a bit generous here. 
  wdt_enable(WDTO_120MS);
    1a22:	0f b6       	in	r0, 0x3f	; 63
    1a24:	f8 94       	cli
    1a26:	a8 95       	wdr
    1a28:	80 93 60 00 	sts	0x0060, r24
    1a2c:	0f be       	out	0x3f, r0	; 63
    1a2e:	20 93 60 00 	sts	0x0060, r18
    1a32:	ff cf       	rjmp	.-2      	; 0x1a32 <_ZN19CApplicationMonitor24WatchdogInterruptHandlerEPh+0x70>

00001a34 <__vector_12>:
    1a34:	6d b7       	in	r22, 0x3d	; 61
    1a36:	7e b7       	in	r23, 0x3e	; 62
    1a38:	6f 5f       	subi	r22, 0xFF	; 255
  
  // The stack pointer on the AVR micro points to the next available location
  // so we want to go back one location to get the first byte of the address 
  // pushed onto the stack when the interrupt was triggered. There will be 
  // PROGRAM_COUNTER_SIZE bytes there. 
  ++upStack;
    1a3a:	7f 4f       	sbci	r23, 0xFF	; 255
  ApplicationMonitor.WatchdogInterruptHandler(upStack);
    1a3c:	88 ef       	ldi	r24, 0xF8	; 248
    1a3e:	97 e0       	ldi	r25, 0x07	; 7
    1a40:	c0 df       	rcall	.-128    	; 0x19c2 <_ZN19CApplicationMonitor24WatchdogInterruptHandlerEPh>

00001a42 <_ZN19CApplicationMonitor12ClearReportsEv>:
    1a42:	0f 93       	push	r16
  while (uSize --)
    eeprom_write_byte((uint8_t *)nBaseAddress++, *puData++);
}

void CApplicationMonitor::ClearReports()
{
    1a44:	1f 93       	push	r17
    1a46:	cf 93       	push	r28
    1a48:	df 93       	push	r29
    1a4a:	1f 92       	push	r1
    1a4c:	1f 92       	push	r1
    1a4e:	cd b7       	in	r28, 0x3d	; 61
    1a50:	de b7       	in	r29, 0x3e	; 62
    1a52:	8c 01       	movw	r16, r24
  CApplicationMonitorHeader Header;

  LoadHeader(Header);
    1a54:	be 01       	movw	r22, r28
    1a56:	6f 5f       	subi	r22, 0xFF	; 255
    1a58:	7f 4f       	sbci	r23, 0xFF	; 255
    1a5a:	a0 de       	rcall	.-704    	; 0x179c <_ZNK19CApplicationMonitor10LoadHeaderER25CApplicationMonitorHeader>
    1a5c:	1a 82       	std	Y+2, r1	; 0x02
  Header.m_uNextReport = 0;
    1a5e:	19 82       	std	Y+1, r1	; 0x01
  Header.m_uSavedReports = 0;
    1a60:	be 01       	movw	r22, r28
  SaveHeader(Header);
    1a62:	6f 5f       	subi	r22, 0xFF	; 255
    1a64:	7f 4f       	sbci	r23, 0xFF	; 255
    1a66:	c8 01       	movw	r24, r16
    1a68:	99 df       	rcall	.-206    	; 0x199c <_ZNK19CApplicationMonitor10SaveHeaderERK25CApplicationMonitorHeader>
    1a6a:	0f 90       	pop	r0
    1a6c:	0f 90       	pop	r0
}
    1a6e:	df 91       	pop	r29
    1a70:	cf 91       	pop	r28
    1a72:	1f 91       	pop	r17
    1a74:	0f 91       	pop	r16
    1a76:	08 95       	ret

00001a78 <_ZN17cmdProcessorClassC1Ev>:

#include "cmdProcessorClass.h"
#include "winch.h"

cmdProcessorClass::cmdProcessorClass() {
  memset(cmdBuf, 0, CMD_BUF_LEN);
    1a78:	20 e8       	ldi	r18, 0x80	; 128
    1a7a:	fc 01       	movw	r30, r24
    1a7c:	11 92       	st	Z+, r1
    1a7e:	2a 95       	dec	r18
    1a80:	e9 f7       	brne	.-6      	; 0x1a7c <_ZN17cmdProcessorClassC1Ev+0x4>
    1a82:	08 95       	ret

00001a84 <_ZN17cmdProcessorClass9parseMoveEv>:

// Parses the move command by setting moveTarget (global) and
// returns speed, which will be the fourth token in the command buffer
// the third token must be the word "at"
// a zero return is a failure
int cmdProcessorClass::parseMove() {
    1a84:	ff 92       	push	r15
    1a86:	0f 93       	push	r16
    1a88:	1f 93       	push	r17
    1a8a:	cf 93       	push	r28
    1a8c:	df 93       	push	r29
    1a8e:	00 d0       	rcall	.+0      	; 0x1a90 <_ZN17cmdProcessorClass9parseMoveEv+0xc>
    1a90:	00 d0       	rcall	.+0      	; 0x1a92 <_ZN17cmdProcessorClass9parseMoveEv+0xe>
    1a92:	cd b7       	in	r28, 0x3d	; 61
    1a94:	de b7       	in	r29, 0x3e	; 62
  char *pch;
  int retVal = 0;

  pch = strtok(NULL, " \r\n"); // get the first token
    1a96:	6c e0       	ldi	r22, 0x0C	; 12
    1a98:	72 e0       	ldi	r23, 0x02	; 2
    1a9a:	80 e0       	ldi	r24, 0x00	; 0
    1a9c:	90 e0       	ldi	r25, 0x00	; 0
    1a9e:	0e 94 1a 5c 	call	0xb834	; 0xb834 <strtok>
    1aa2:	8c 01       	movw	r16, r24
  if (isValidNumber(pch)) { 
    1aa4:	bc 01       	movw	r22, r24
    1aa6:	ce 01       	movw	r24, r28
    1aa8:	01 96       	adiw	r24, 0x01	; 1
    1aaa:	0e 94 28 53 	call	0xa650	; 0xa650 <_ZN6StringC1EPKc>
    1aae:	ce 01       	movw	r24, r28
    1ab0:	01 96       	adiw	r24, 0x01	; 1
    1ab2:	0e 94 b8 2f 	call	0x5f70	; 0x5f70 <_Z13isValidNumber6String>
    1ab6:	f8 2e       	mov	r15, r24
    1ab8:	ce 01       	movw	r24, r28
    1aba:	01 96       	adiw	r24, 0x01	; 1
    1abc:	0e 94 c0 52 	call	0xa580	; 0xa580 <_ZN6StringD1Ev>
    1ac0:	f1 10       	cpse	r15, r1
    1ac2:	03 c0       	rjmp	.+6      	; 0x1aca <_ZN17cmdProcessorClass9parseMoveEv+0x46>
// returns speed, which will be the fourth token in the command buffer
// the third token must be the word "at"
// a zero return is a failure
int cmdProcessorClass::parseMove() {
  char *pch;
  int retVal = 0;
    1ac4:	80 e0       	ldi	r24, 0x00	; 0
    1ac6:	90 e0       	ldi	r25, 0x00	; 0
    1ac8:	21 c0       	rjmp	.+66     	; 0x1b0c <_ZN17cmdProcessorClass9parseMoveEv+0x88>

  pch = strtok(NULL, " \r\n"); // get the first token
  if (isValidNumber(pch)) { 
    moveTarget = strtod(pch, NULL);
    1aca:	60 e0       	ldi	r22, 0x00	; 0
    1acc:	70 e0       	ldi	r23, 0x00	; 0
    1ace:	c8 01       	movw	r24, r16
    1ad0:	0e 94 34 5a 	call	0xb468	; 0xb468 <strtod>
    1ad4:	60 93 a7 06 	sts	0x06A7, r22
    1ad8:	70 93 a8 06 	sts	0x06A8, r23
    1adc:	80 93 a9 06 	sts	0x06A9, r24
    1ae0:	90 93 aa 06 	sts	0x06AA, r25

    pch = strtok(NULL, " \r\n"); // get the next token
    1ae4:	6c e0       	ldi	r22, 0x0C	; 12
    1ae6:	72 e0       	ldi	r23, 0x02	; 2
    1ae8:	80 e0       	ldi	r24, 0x00	; 0
    1aea:	90 e0       	ldi	r25, 0x00	; 0
    1aec:	0e 94 1a 5c 	call	0xb834	; 0xb834 <strtok>
    if (strcmp(pch, "at") == 0) {
    1af0:	60 e1       	ldi	r22, 0x10	; 16
    1af2:	72 e0       	ldi	r23, 0x02	; 2
    1af4:	0e 94 3e 5c 	call	0xb87c	; 0xb87c <strcmp>
    1af8:	89 2b       	or	r24, r25
    1afa:	21 f7       	brne	.-56     	; 0x1ac4 <_ZN17cmdProcessorClass9parseMoveEv+0x40>
      pch = strtok(NULL, " \r\n"); // get the next token
    1afc:	6c e0       	ldi	r22, 0x0C	; 12
    1afe:	72 e0       	ldi	r23, 0x02	; 2
    1b00:	80 e0       	ldi	r24, 0x00	; 0
    1b02:	90 e0       	ldi	r25, 0x00	; 0
    1b04:	0e 94 1a 5c 	call	0xb834	; 0xb834 <strtok>
      retVal = atoi(pch);
    1b08:	0e 94 9f 5b 	call	0xb73e	; 0xb73e <atoi>
    }
  }
  return retVal;
}
    1b0c:	26 96       	adiw	r28, 0x06	; 6
    1b0e:	0f b6       	in	r0, 0x3f	; 63
    1b10:	f8 94       	cli
    1b12:	de bf       	out	0x3e, r29	; 62
    1b14:	0f be       	out	0x3f, r0	; 63
    1b16:	cd bf       	out	0x3d, r28	; 61
    1b18:	df 91       	pop	r29
    1b1a:	cf 91       	pop	r28
    1b1c:	1f 91       	pop	r17
    1b1e:	0f 91       	pop	r16
    1b20:	ff 90       	pop	r15
    1b22:	08 95       	ret

00001b24 <_ZN17cmdProcessorClass11readCommandEv>:

cmdProcessorClass::cmdProcessorClass() {
  memset(cmdBuf, 0, CMD_BUF_LEN);
}

void cmdProcessorClass::readCommand() {
    1b24:	4f 92       	push	r4
    1b26:	5f 92       	push	r5
    1b28:	6f 92       	push	r6
    1b2a:	7f 92       	push	r7
    1b2c:	8f 92       	push	r8
    1b2e:	9f 92       	push	r9
    1b30:	af 92       	push	r10
    1b32:	bf 92       	push	r11
    1b34:	cf 92       	push	r12
    1b36:	df 92       	push	r13
    1b38:	ef 92       	push	r14
    1b3a:	ff 92       	push	r15
    1b3c:	0f 93       	push	r16
    1b3e:	1f 93       	push	r17
    1b40:	cf 93       	push	r28
    1b42:	df 93       	push	r29
    1b44:	cd b7       	in	r28, 0x3d	; 61
    1b46:	de b7       	in	r29, 0x3e	; 62
    1b48:	c8 56       	subi	r28, 0x68	; 104
    1b4a:	d1 09       	sbc	r29, r1
    1b4c:	0f b6       	in	r0, 0x3f	; 63
    1b4e:	f8 94       	cli
    1b50:	de bf       	out	0x3e, r29	; 62
    1b52:	0f be       	out	0x3f, r0	; 63
    1b54:	cd bf       	out	0x3d, r28	; 61
    1b56:	8c 01       	movw	r16, r24

  // read available characters and put them in the command buffer
  char c = ' ';   // init to anything other than newline
  int i = 0;      // index into cmdBuf
    1b58:	e1 2c       	mov	r14, r1
    1b5a:	f1 2c       	mov	r15, r1
}

void cmdProcessorClass::readCommand() {

  // read available characters and put them in the command buffer
  char c = ' ';   // init to anything other than newline
    1b5c:	40 e2       	ldi	r20, 0x20	; 32
  int i = 0;      // index into cmdBuf
  while (Ethernet1.getCmdClient().available()) {
    1b5e:	e0 91 da 07 	lds	r30, 0x07DA
    1b62:	f0 91 db 07 	lds	r31, 0x07DB
    1b66:	04 80       	ldd	r0, Z+4	; 0x04
    1b68:	f5 81       	ldd	r31, Z+5	; 0x05
    1b6a:	e0 2d       	mov	r30, r0
    1b6c:	8a ed       	ldi	r24, 0xDA	; 218
    1b6e:	97 e0       	ldi	r25, 0x07	; 7
    1b70:	a8 96       	adiw	r28, 0x28	; 40
    1b72:	4f af       	std	Y+63, r20	; 0x3f
    1b74:	a8 97       	sbiw	r28, 0x28	; 40
    1b76:	19 95       	eicall
    1b78:	a8 96       	adiw	r28, 0x28	; 40
    1b7a:	4f ad       	ldd	r20, Y+63	; 0x3f
    1b7c:	a8 97       	sbiw	r28, 0x28	; 40
    1b7e:	89 2b       	or	r24, r25
    1b80:	b9 f1       	breq	.+110    	; 0x1bf0 <_ZN17cmdProcessorClass11readCommandEv+0xcc>
    c = Ethernet1.getCmdClient().read();
    1b82:	e0 91 da 07 	lds	r30, 0x07DA
    1b86:	f0 91 db 07 	lds	r31, 0x07DB
    1b8a:	06 80       	ldd	r0, Z+6	; 0x06
    1b8c:	f7 81       	ldd	r31, Z+7	; 0x07
    1b8e:	e0 2d       	mov	r30, r0
    1b90:	8a ed       	ldi	r24, 0xDA	; 218
    1b92:	97 e0       	ldi	r25, 0x07	; 7
    1b94:	19 95       	eicall
    1b96:	48 2f       	mov	r20, r24
    1b98:	f8 01       	movw	r30, r16
    1b9a:	ee 0d       	add	r30, r14
    1b9c:	ff 1d       	adc	r31, r15
    if (c == 8) { // backspace
    1b9e:	88 30       	cpi	r24, 0x08	; 8
    1ba0:	29 f4       	brne	.+10     	; 0x1bac <_ZN17cmdProcessorClass11readCommandEv+0x88>
      cmdBuf[i--] = 0;  // set null, then decrement i
    1ba2:	10 82       	st	Z, r1
    1ba4:	c7 01       	movw	r24, r14
    1ba6:	01 97       	sbiw	r24, 0x01	; 1
    1ba8:	7c 01       	movw	r14, r24
    1baa:	d9 cf       	rjmp	.-78     	; 0x1b5e <_ZN17cmdProcessorClass11readCommandEv+0x3a>
    }
    else {
      cmdBuf[i++] = c;
    1bac:	97 01       	movw	r18, r14
    1bae:	2f 5f       	subi	r18, 0xFF	; 255
    1bb0:	3f 4f       	sbci	r19, 0xFF	; 255
    1bb2:	80 83       	st	Z, r24
      if (i >= CMD_BUF_LEN) { i--; } // don't let the index go past the end
    1bb4:	20 38       	cpi	r18, 0x80	; 128
    1bb6:	31 05       	cpc	r19, r1
    1bb8:	0c f4       	brge	.+2      	; 0x1bbc <_ZN17cmdProcessorClass11readCommandEv+0x98>
    1bba:	79 01       	movw	r14, r18
      if (c == '\n') { break; }         // if there is a newline, process the line
    1bbc:	4a 30       	cpi	r20, 0x0A	; 10
    1bbe:	79 f6       	brne	.-98     	; 0x1b5e <_ZN17cmdProcessorClass11readCommandEv+0x3a>
    }
  }

  if (c == '\n') {  // process the line
    if (strlen(cmdBuf) > 2) {   // if there is more than just <cr><lf>
    1bc0:	f8 01       	movw	r30, r16
    1bc2:	01 90       	ld	r0, Z+
    1bc4:	00 20       	and	r0, r0
    1bc6:	e9 f7       	brne	.-6      	; 0x1bc2 <_ZN17cmdProcessorClass11readCommandEv+0x9e>
    1bc8:	31 97       	sbiw	r30, 0x01	; 1
    1bca:	e0 1b       	sub	r30, r16
    1bcc:	f1 0b       	sbc	r31, r17
    1bce:	33 97       	sbiw	r30, 0x03	; 3
    1bd0:	10 f4       	brcc	.+4      	; 0x1bd6 <_ZN17cmdProcessorClass11readCommandEv+0xb2>
    1bd2:	0c 94 8c 17 	jmp	0x2f18	; 0x2f18 <__stack+0xd19>

      Serial.print("Processing command: "); Serial.print(cmdBuf);
    1bd6:	63 e1       	ldi	r22, 0x13	; 19
    1bd8:	72 e0       	ldi	r23, 0x02	; 2
    1bda:	86 ec       	ldi	r24, 0xC6	; 198
    1bdc:	98 e0       	ldi	r25, 0x08	; 8
    1bde:	0e 94 76 4f 	call	0x9eec	; 0x9eec <_ZN5Print5printEPKc>
    1be2:	b8 01       	movw	r22, r16
    1be4:	86 ec       	ldi	r24, 0xC6	; 198
    1be6:	98 e0       	ldi	r25, 0x08	; 8
    1be8:	0e 94 76 4f 	call	0x9eec	; 0x9eec <_ZN5Print5printEPKc>

      for (i = 0; i < (int)strlen(cmdBuf); i++) { cmdBuf[i] = tolower(cmdBuf[i]); }  // convert to lower case
    1bec:	78 01       	movw	r14, r16
    1bee:	05 c0       	rjmp	.+10     	; 0x1bfa <_ZN17cmdProcessorClass11readCommandEv+0xd6>
      if (i >= CMD_BUF_LEN) { i--; } // don't let the index go past the end
      if (c == '\n') { break; }         // if there is a newline, process the line
    }
  }

  if (c == '\n') {  // process the line
    1bf0:	4a 30       	cpi	r20, 0x0A	; 10
    1bf2:	11 f0       	breq	.+4      	; 0x1bf8 <_ZN17cmdProcessorClass11readCommandEv+0xd4>
    1bf4:	0c 94 4d 1a 	jmp	0x349a	; 0x349a <__stack+0x129b>
    1bf8:	e3 cf       	rjmp	.-58     	; 0x1bc0 <_ZN17cmdProcessorClass11readCommandEv+0x9c>
    if (strlen(cmdBuf) > 2) {   // if there is more than just <cr><lf>

      Serial.print("Processing command: "); Serial.print(cmdBuf);

      for (i = 0; i < (int)strlen(cmdBuf); i++) { cmdBuf[i] = tolower(cmdBuf[i]); }  // convert to lower case
    1bfa:	f8 01       	movw	r30, r16
    1bfc:	01 90       	ld	r0, Z+
    1bfe:	00 20       	and	r0, r0
    1c00:	e9 f7       	brne	.-6      	; 0x1bfc <_ZN17cmdProcessorClass11readCommandEv+0xd8>
    1c02:	31 97       	sbiw	r30, 0x01	; 1
    1c04:	e0 1b       	sub	r30, r16
    1c06:	f1 0b       	sbc	r31, r17
    1c08:	c7 01       	movw	r24, r14
    1c0a:	80 1b       	sub	r24, r16
    1c0c:	91 0b       	sbc	r25, r17
    1c0e:	8e 17       	cp	r24, r30
    1c10:	9f 07       	cpc	r25, r31
    1c12:	5c f4       	brge	.+22     	; 0x1c2a <_ZN17cmdProcessorClass11readCommandEv+0x106>
    1c14:	f7 01       	movw	r30, r14
    1c16:	80 81       	ld	r24, Z
    1c18:	99 27       	eor	r25, r25
    1c1a:	87 fd       	sbrc	r24, 7
    1c1c:	90 95       	com	r25
    1c1e:	0e 94 ea 5b 	call	0xb7d4	; 0xb7d4 <tolower>
    1c22:	f7 01       	movw	r30, r14
    1c24:	81 93       	st	Z+, r24
    1c26:	7f 01       	movw	r14, r30
    1c28:	e8 cf       	rjmp	.-48     	; 0x1bfa <_ZN17cmdProcessorClass11readCommandEv+0xd6>
      char *pch;  //will point to command buf tokens as we go
      pch = strtok(cmdBuf, " \r\n");
    1c2a:	6c e0       	ldi	r22, 0x0C	; 12
    1c2c:	72 e0       	ldi	r23, 0x02	; 2
    1c2e:	c8 01       	movw	r24, r16
    1c30:	0e 94 1a 5c 	call	0xb834	; 0xb834 <strtok>
    1c34:	7c 01       	movw	r14, r24

      if ( strcmp(pch, "hiworld") == 0 ) {
    1c36:	68 e2       	ldi	r22, 0x28	; 40
    1c38:	72 e0       	ldi	r23, 0x02	; 2
    1c3a:	0e 94 3e 5c 	call	0xb87c	; 0xb87c <strcmp>
    1c3e:	89 2b       	or	r24, r25
    1c40:	21 f4       	brne	.+8      	; 0x1c4a <_ZN17cmdProcessorClass11readCommandEv+0x126>
        Ethernet1.getCmdClient().println(F("Hello, world!"));
    1c42:	68 e5       	ldi	r22, 0x58	; 88
    1c44:	7e e0       	ldi	r23, 0x0E	; 14
    1c46:	0c 94 48 1a 	jmp	0x3490	; 0x3490 <__stack+0x1291>
      } else {

      if ( strcmp(pch, "ip_address") == 0 ) {
    1c4a:	60 e3       	ldi	r22, 0x30	; 48
    1c4c:	72 e0       	ldi	r23, 0x02	; 2
    1c4e:	c7 01       	movw	r24, r14
    1c50:	0e 94 3e 5c 	call	0xb87c	; 0xb87c <strcmp>
    1c54:	89 2b       	or	r24, r25
    1c56:	09 f0       	breq	.+2      	; 0x1c5a <_ZN17cmdProcessorClass11readCommandEv+0x136>
    1c58:	54 c0       	rjmp	.+168    	; 0x1d02 <_ZN17cmdProcessorClass11readCommandEv+0x1de>
        pch = strtok(NULL, " \r\n");  // get the next token
    1c5a:	6c e0       	ldi	r22, 0x0C	; 12
    1c5c:	72 e0       	ldi	r23, 0x02	; 2
    1c5e:	80 e0       	ldi	r24, 0x00	; 0
    1c60:	90 e0       	ldi	r25, 0x00	; 0
    1c62:	0e 94 1a 5c 	call	0xb834	; 0xb834 <strtok>
    1c66:	7c 01       	movw	r14, r24

        if (pch==0) {
    1c68:	00 97       	sbiw	r24, 0x00	; 0
    1c6a:	19 f4       	brne	.+6      	; 0x1c72 <_ZN17cmdProcessorClass11readCommandEv+0x14e>
          Ethernet1.getCmdClient().println( Ethernet1.longToIP( EepromAccess.readEEPromLong(EepromAccess.IP)));
    1c6c:	64 e6       	ldi	r22, 0x64	; 100
    1c6e:	70 e0       	ldi	r23, 0x00	; 0
    1c70:	4f c1       	rjmp	.+670    	; 0x1f10 <_ZN17cmdProcessorClass11readCommandEv+0x3ec>
        } else {
          unsigned long addr = Ethernet1.IPtoLong(pch);
    1c72:	bc 01       	movw	r22, r24
    1c74:	ce 01       	movw	r24, r28
    1c76:	01 96       	adiw	r24, 0x01	; 1
    1c78:	0e 94 28 53 	call	0xa650	; 0xa650 <_ZN6StringC1EPKc>
    1c7c:	be 01       	movw	r22, r28
    1c7e:	6f 5f       	subi	r22, 0xFF	; 255
    1c80:	7f 4f       	sbci	r23, 0xFF	; 255
    1c82:	8d e9       	ldi	r24, 0x9D	; 157
    1c84:	97 e0       	ldi	r25, 0x07	; 7
    1c86:	0e 94 a0 1b 	call	0x3740	; 0x3740 <_ZN15EthernetSupport8IPtoLongE6String>
    1c8a:	9b 01       	movw	r18, r22
    1c8c:	ac 01       	movw	r20, r24
    1c8e:	ce 01       	movw	r24, r28
    1c90:	01 96       	adiw	r24, 0x01	; 1
    1c92:	a9 96       	adiw	r28, 0x29	; 41
    1c94:	2f af       	std	Y+63, r18	; 0x3f
    1c96:	a9 97       	sbiw	r28, 0x29	; 41
    1c98:	a6 96       	adiw	r28, 0x26	; 38
    1c9a:	3f af       	std	Y+63, r19	; 0x3f
    1c9c:	a6 97       	sbiw	r28, 0x26	; 38
    1c9e:	a8 96       	adiw	r28, 0x28	; 40
    1ca0:	4f af       	std	Y+63, r20	; 0x3f
    1ca2:	a8 97       	sbiw	r28, 0x28	; 40
    1ca4:	a7 96       	adiw	r28, 0x27	; 39
    1ca6:	5f af       	std	Y+63, r21	; 0x3f
    1ca8:	a7 97       	sbiw	r28, 0x27	; 39
    1caa:	0e 94 c0 52 	call	0xa580	; 0xa580 <_ZN6StringD1Ev>
          if ((long)addr == -1) {
    1cae:	a9 96       	adiw	r28, 0x29	; 41
    1cb0:	2f ad       	ldd	r18, Y+63	; 0x3f
    1cb2:	a9 97       	sbiw	r28, 0x29	; 41
    1cb4:	a6 96       	adiw	r28, 0x26	; 38
    1cb6:	3f ad       	ldd	r19, Y+63	; 0x3f
    1cb8:	a6 97       	sbiw	r28, 0x26	; 38
    1cba:	a8 96       	adiw	r28, 0x28	; 40
    1cbc:	4f ad       	ldd	r20, Y+63	; 0x3f
    1cbe:	a8 97       	sbiw	r28, 0x28	; 40
    1cc0:	a7 96       	adiw	r28, 0x27	; 39
    1cc2:	5f ad       	ldd	r21, Y+63	; 0x3f
    1cc4:	a7 97       	sbiw	r28, 0x27	; 39
    1cc6:	2f 3f       	cpi	r18, 0xFF	; 255
    1cc8:	ff ef       	ldi	r31, 0xFF	; 255
    1cca:	3f 07       	cpc	r19, r31
    1ccc:	4f 07       	cpc	r20, r31
    1cce:	5f 07       	cpc	r21, r31
    1cd0:	79 f4       	brne	.+30     	; 0x1cf0 <_ZN17cmdProcessorClass11readCommandEv+0x1cc>
            Ethernet1.getCmdClient().print(F("ERROR: ")); Ethernet1.getCmdClient().println(pch);
    1cd2:	60 e5       	ldi	r22, 0x50	; 80
    1cd4:	7e e0       	ldi	r23, 0x0E	; 14
    1cd6:	8a ed       	ldi	r24, 0xDA	; 218
    1cd8:	97 e0       	ldi	r25, 0x07	; 7
    1cda:	0e 94 43 4f 	call	0x9e86	; 0x9e86 <_ZN5Print5printEPK19__FlashStringHelper>
    1cde:	b7 01       	movw	r22, r14
    1ce0:	8a ed       	ldi	r24, 0xDA	; 218
    1ce2:	97 e0       	ldi	r25, 0x07	; 7
    1ce4:	0e 94 ba 4f 	call	0x9f74	; 0x9f74 <_ZN5Print7printlnEPKc>
            Ethernet1.getCmdClient().println(F(" does not parse to an IP address."));
    1ce8:	6e e2       	ldi	r22, 0x2E	; 46
    1cea:	7e e0       	ldi	r23, 0x0E	; 14
    1cec:	0c 94 48 1a 	jmp	0x3490	; 0x3490 <__stack+0x1291>
          } else {
            EepromAccess.writeEEPromLong(EepromAccess.IP, addr);
    1cf0:	64 e6       	ldi	r22, 0x64	; 100
    1cf2:	70 e0       	ldi	r23, 0x00	; 0
    1cf4:	87 ef       	ldi	r24, 0xF7	; 247
    1cf6:	97 e0       	ldi	r25, 0x07	; 7
    1cf8:	0e 94 06 1b 	call	0x360c	; 0x360c <_ZN17EepromAccessClass15writeEEPromLongEil>
            Ethernet1.getCmdClient().print(F("IP address set to ")); Ethernet1.getCmdClient().println(pch);
    1cfc:	6b e1       	ldi	r22, 0x1B	; 27
    1cfe:	7e e0       	ldi	r23, 0x0E	; 14
    1d00:	62 c1       	rjmp	.+708    	; 0x1fc6 <_ZN17cmdProcessorClass11readCommandEv+0x4a2>
          }
        }
      } else {

      if ( strcmp(pch, "dns") == 0 ) {
    1d02:	6b e3       	ldi	r22, 0x3B	; 59
    1d04:	72 e0       	ldi	r23, 0x02	; 2
    1d06:	c7 01       	movw	r24, r14
    1d08:	0e 94 3e 5c 	call	0xb87c	; 0xb87c <strcmp>
    1d0c:	89 2b       	or	r24, r25
    1d0e:	09 f0       	breq	.+2      	; 0x1d12 <_ZN17cmdProcessorClass11readCommandEv+0x1ee>
    1d10:	74 c0       	rjmp	.+232    	; 0x1dfa <_ZN17cmdProcessorClass11readCommandEv+0x2d6>
        pch = strtok(NULL, " \r\n");  // get the next token
    1d12:	6c e0       	ldi	r22, 0x0C	; 12
    1d14:	72 e0       	ldi	r23, 0x02	; 2
    1d16:	80 e0       	ldi	r24, 0x00	; 0
    1d18:	90 e0       	ldi	r25, 0x00	; 0
    1d1a:	0e 94 1a 5c 	call	0xb834	; 0xb834 <strtok>
    1d1e:	7c 01       	movw	r14, r24
        Serial.print("The second token is: |"); Serial.print(pch); Serial.println("|");
    1d20:	6f e3       	ldi	r22, 0x3F	; 63
    1d22:	72 e0       	ldi	r23, 0x02	; 2
    1d24:	86 ec       	ldi	r24, 0xC6	; 198
    1d26:	98 e0       	ldi	r25, 0x08	; 8
    1d28:	0e 94 76 4f 	call	0x9eec	; 0x9eec <_ZN5Print5printEPKc>
    1d2c:	b7 01       	movw	r22, r14
    1d2e:	86 ec       	ldi	r24, 0xC6	; 198
    1d30:	98 e0       	ldi	r25, 0x08	; 8
    1d32:	0e 94 76 4f 	call	0x9eec	; 0x9eec <_ZN5Print5printEPKc>
    1d36:	64 e5       	ldi	r22, 0x54	; 84
    1d38:	72 e0       	ldi	r23, 0x02	; 2
    1d3a:	86 ec       	ldi	r24, 0xC6	; 198
    1d3c:	98 e0       	ldi	r25, 0x08	; 8
    1d3e:	0e 94 ba 4f 	call	0x9f74	; 0x9f74 <_ZN5Print7printlnEPKc>

        if (pch == 0) {
    1d42:	e1 14       	cp	r14, r1
    1d44:	f1 04       	cpc	r15, r1
    1d46:	89 f4       	brne	.+34     	; 0x1d6a <_ZN17cmdProcessorClass11readCommandEv+0x246>
          if (EepromAccess.readEEPromLong(EepromAccess.IP)==0) {
    1d48:	64 e6       	ldi	r22, 0x64	; 100
    1d4a:	70 e0       	ldi	r23, 0x00	; 0
    1d4c:	87 ef       	ldi	r24, 0xF7	; 247
    1d4e:	97 e0       	ldi	r25, 0x07	; 7
    1d50:	0e 94 d4 1a 	call	0x35a8	; 0x35a8 <_ZN17EepromAccessClass14readEEPromLongEi>
    1d54:	67 2b       	or	r22, r23
    1d56:	68 2b       	or	r22, r24
    1d58:	69 2b       	or	r22, r25
    1d5a:	21 f4       	brne	.+8      	; 0x1d64 <_ZN17cmdProcessorClass11readCommandEv+0x240>
            Ethernet1.getCmdClient().println(F("0.0.0.0"));  // set through DHCP
    1d5c:	63 e1       	ldi	r22, 0x13	; 19
    1d5e:	7e e0       	ldi	r23, 0x0E	; 14
    1d60:	0c 94 48 1a 	jmp	0x3490	; 0x3490 <__stack+0x1291>
          } else {
            Ethernet1.getCmdClient().println( Ethernet1.longToIP( EepromAccess.readEEPromLong(EepromAccess.DNS)));
    1d64:	68 e6       	ldi	r22, 0x68	; 104
    1d66:	70 e0       	ldi	r23, 0x00	; 0
    1d68:	d3 c0       	rjmp	.+422    	; 0x1f10 <_ZN17cmdProcessorClass11readCommandEv+0x3ec>
          }
        } else {
          unsigned long addr = Ethernet1.IPtoLong(pch);
    1d6a:	b7 01       	movw	r22, r14
    1d6c:	ce 01       	movw	r24, r28
    1d6e:	01 96       	adiw	r24, 0x01	; 1
    1d70:	0e 94 28 53 	call	0xa650	; 0xa650 <_ZN6StringC1EPKc>
    1d74:	be 01       	movw	r22, r28
    1d76:	6f 5f       	subi	r22, 0xFF	; 255
    1d78:	7f 4f       	sbci	r23, 0xFF	; 255
    1d7a:	8d e9       	ldi	r24, 0x9D	; 157
    1d7c:	97 e0       	ldi	r25, 0x07	; 7
    1d7e:	0e 94 a0 1b 	call	0x3740	; 0x3740 <_ZN15EthernetSupport8IPtoLongE6String>
    1d82:	9b 01       	movw	r18, r22
    1d84:	ac 01       	movw	r20, r24
    1d86:	ce 01       	movw	r24, r28
    1d88:	01 96       	adiw	r24, 0x01	; 1
    1d8a:	a9 96       	adiw	r28, 0x29	; 41
    1d8c:	2f af       	std	Y+63, r18	; 0x3f
    1d8e:	a9 97       	sbiw	r28, 0x29	; 41
    1d90:	a6 96       	adiw	r28, 0x26	; 38
    1d92:	3f af       	std	Y+63, r19	; 0x3f
    1d94:	a6 97       	sbiw	r28, 0x26	; 38
    1d96:	a8 96       	adiw	r28, 0x28	; 40
    1d98:	4f af       	std	Y+63, r20	; 0x3f
    1d9a:	a8 97       	sbiw	r28, 0x28	; 40
    1d9c:	a7 96       	adiw	r28, 0x27	; 39
    1d9e:	5f af       	std	Y+63, r21	; 0x3f
    1da0:	a7 97       	sbiw	r28, 0x27	; 39
    1da2:	0e 94 c0 52 	call	0xa580	; 0xa580 <_ZN6StringD1Ev>
          if ((long)addr == -1) {
    1da6:	a9 96       	adiw	r28, 0x29	; 41
    1da8:	2f ad       	ldd	r18, Y+63	; 0x3f
    1daa:	a9 97       	sbiw	r28, 0x29	; 41
    1dac:	a6 96       	adiw	r28, 0x26	; 38
    1dae:	3f ad       	ldd	r19, Y+63	; 0x3f
    1db0:	a6 97       	sbiw	r28, 0x26	; 38
    1db2:	a8 96       	adiw	r28, 0x28	; 40
    1db4:	4f ad       	ldd	r20, Y+63	; 0x3f
    1db6:	a8 97       	sbiw	r28, 0x28	; 40
    1db8:	a7 96       	adiw	r28, 0x27	; 39
    1dba:	5f ad       	ldd	r21, Y+63	; 0x3f
    1dbc:	a7 97       	sbiw	r28, 0x27	; 39
    1dbe:	2f 3f       	cpi	r18, 0xFF	; 255
    1dc0:	8f ef       	ldi	r24, 0xFF	; 255
    1dc2:	38 07       	cpc	r19, r24
    1dc4:	48 07       	cpc	r20, r24
    1dc6:	58 07       	cpc	r21, r24
    1dc8:	79 f4       	brne	.+30     	; 0x1de8 <_ZN17cmdProcessorClass11readCommandEv+0x2c4>
            Ethernet1.getCmdClient().print(F("ERROR: ")); Ethernet1.getCmdClient().print(pch);
    1dca:	6b e0       	ldi	r22, 0x0B	; 11
    1dcc:	7e e0       	ldi	r23, 0x0E	; 14
    1dce:	8a ed       	ldi	r24, 0xDA	; 218
    1dd0:	97 e0       	ldi	r25, 0x07	; 7
    1dd2:	0e 94 43 4f 	call	0x9e86	; 0x9e86 <_ZN5Print5printEPK19__FlashStringHelper>
    1dd6:	b7 01       	movw	r22, r14
    1dd8:	8a ed       	ldi	r24, 0xDA	; 218
    1dda:	97 e0       	ldi	r25, 0x07	; 7
    1ddc:	0e 94 76 4f 	call	0x9eec	; 0x9eec <_ZN5Print5printEPKc>
            Ethernet1.getCmdClient().println(F(" does not parse to an IP address."));
    1de0:	69 ee       	ldi	r22, 0xE9	; 233
    1de2:	7d e0       	ldi	r23, 0x0D	; 13
    1de4:	0c 94 48 1a 	jmp	0x3490	; 0x3490 <__stack+0x1291>
          } else {
            EepromAccess.writeEEPromLong(EepromAccess.DNS, addr);
    1de8:	68 e6       	ldi	r22, 0x68	; 104
    1dea:	70 e0       	ldi	r23, 0x00	; 0
    1dec:	87 ef       	ldi	r24, 0xF7	; 247
    1dee:	97 e0       	ldi	r25, 0x07	; 7
    1df0:	0e 94 06 1b 	call	0x360c	; 0x360c <_ZN17EepromAccessClass15writeEEPromLongEil>
            Ethernet1.getCmdClient().print(F("DNS address set to ")); Ethernet1.getCmdClient().println(pch);
    1df4:	65 ed       	ldi	r22, 0xD5	; 213
    1df6:	7d e0       	ldi	r23, 0x0D	; 13
    1df8:	e6 c0       	rjmp	.+460    	; 0x1fc6 <_ZN17cmdProcessorClass11readCommandEv+0x4a2>
          }
        }
      } else {
        
      if ( strcmp(pch, "gateway") == 0) {
    1dfa:	66 e5       	ldi	r22, 0x56	; 86
    1dfc:	72 e0       	ldi	r23, 0x02	; 2
    1dfe:	c7 01       	movw	r24, r14
    1e00:	0e 94 3e 5c 	call	0xb87c	; 0xb87c <strcmp>
    1e04:	89 2b       	or	r24, r25
    1e06:	09 f0       	breq	.+2      	; 0x1e0a <_ZN17cmdProcessorClass11readCommandEv+0x2e6>
    1e08:	62 c0       	rjmp	.+196    	; 0x1ece <_ZN17cmdProcessorClass11readCommandEv+0x3aa>
        pch = strtok(NULL, " \r\n");  // get the next token
    1e0a:	6c e0       	ldi	r22, 0x0C	; 12
    1e0c:	72 e0       	ldi	r23, 0x02	; 2
    1e0e:	80 e0       	ldi	r24, 0x00	; 0
    1e10:	90 e0       	ldi	r25, 0x00	; 0
    1e12:	0e 94 1a 5c 	call	0xb834	; 0xb834 <strtok>
    1e16:	7c 01       	movw	r14, r24

        if (pch == 0) {
    1e18:	00 97       	sbiw	r24, 0x00	; 0
    1e1a:	89 f4       	brne	.+34     	; 0x1e3e <_ZN17cmdProcessorClass11readCommandEv+0x31a>
          if (EepromAccess.readEEPromLong(EepromAccess.IP)==0) {
    1e1c:	64 e6       	ldi	r22, 0x64	; 100
    1e1e:	70 e0       	ldi	r23, 0x00	; 0
    1e20:	87 ef       	ldi	r24, 0xF7	; 247
    1e22:	97 e0       	ldi	r25, 0x07	; 7
    1e24:	0e 94 d4 1a 	call	0x35a8	; 0x35a8 <_ZN17EepromAccessClass14readEEPromLongEi>
    1e28:	67 2b       	or	r22, r23
    1e2a:	68 2b       	or	r22, r24
    1e2c:	69 2b       	or	r22, r25
    1e2e:	21 f4       	brne	.+8      	; 0x1e38 <_ZN17cmdProcessorClass11readCommandEv+0x314>
            Ethernet1.getCmdClient().println(F("0.0.0.0"));  // set through DHCP
    1e30:	6d ec       	ldi	r22, 0xCD	; 205
    1e32:	7d e0       	ldi	r23, 0x0D	; 13
    1e34:	0c 94 48 1a 	jmp	0x3490	; 0x3490 <__stack+0x1291>
          } else {
            Ethernet1.getCmdClient().println( Ethernet1.longToIP( EepromAccess.readEEPromLong(EepromAccess.GATE)));
    1e38:	6c e6       	ldi	r22, 0x6C	; 108
    1e3a:	70 e0       	ldi	r23, 0x00	; 0
    1e3c:	69 c0       	rjmp	.+210    	; 0x1f10 <_ZN17cmdProcessorClass11readCommandEv+0x3ec>
          }
        } else {
          unsigned long addr = Ethernet1.IPtoLong(pch);
    1e3e:	bc 01       	movw	r22, r24
    1e40:	ce 01       	movw	r24, r28
    1e42:	01 96       	adiw	r24, 0x01	; 1
    1e44:	0e 94 28 53 	call	0xa650	; 0xa650 <_ZN6StringC1EPKc>
    1e48:	be 01       	movw	r22, r28
    1e4a:	6f 5f       	subi	r22, 0xFF	; 255
    1e4c:	7f 4f       	sbci	r23, 0xFF	; 255
    1e4e:	8d e9       	ldi	r24, 0x9D	; 157
    1e50:	97 e0       	ldi	r25, 0x07	; 7
    1e52:	0e 94 a0 1b 	call	0x3740	; 0x3740 <_ZN15EthernetSupport8IPtoLongE6String>
    1e56:	9b 01       	movw	r18, r22
    1e58:	ac 01       	movw	r20, r24
    1e5a:	ce 01       	movw	r24, r28
    1e5c:	01 96       	adiw	r24, 0x01	; 1
    1e5e:	a9 96       	adiw	r28, 0x29	; 41
    1e60:	2f af       	std	Y+63, r18	; 0x3f
    1e62:	a9 97       	sbiw	r28, 0x29	; 41
    1e64:	a6 96       	adiw	r28, 0x26	; 38
    1e66:	3f af       	std	Y+63, r19	; 0x3f
    1e68:	a6 97       	sbiw	r28, 0x26	; 38
    1e6a:	a8 96       	adiw	r28, 0x28	; 40
    1e6c:	4f af       	std	Y+63, r20	; 0x3f
    1e6e:	a8 97       	sbiw	r28, 0x28	; 40
    1e70:	a7 96       	adiw	r28, 0x27	; 39
    1e72:	5f af       	std	Y+63, r21	; 0x3f
    1e74:	a7 97       	sbiw	r28, 0x27	; 39
    1e76:	0e 94 c0 52 	call	0xa580	; 0xa580 <_ZN6StringD1Ev>
          if ((long)addr == -1) {
    1e7a:	a9 96       	adiw	r28, 0x29	; 41
    1e7c:	2f ad       	ldd	r18, Y+63	; 0x3f
    1e7e:	a9 97       	sbiw	r28, 0x29	; 41
    1e80:	a6 96       	adiw	r28, 0x26	; 38
    1e82:	3f ad       	ldd	r19, Y+63	; 0x3f
    1e84:	a6 97       	sbiw	r28, 0x26	; 38
    1e86:	a8 96       	adiw	r28, 0x28	; 40
    1e88:	4f ad       	ldd	r20, Y+63	; 0x3f
    1e8a:	a8 97       	sbiw	r28, 0x28	; 40
    1e8c:	a7 96       	adiw	r28, 0x27	; 39
    1e8e:	5f ad       	ldd	r21, Y+63	; 0x3f
    1e90:	a7 97       	sbiw	r28, 0x27	; 39
    1e92:	2f 3f       	cpi	r18, 0xFF	; 255
    1e94:	9f ef       	ldi	r25, 0xFF	; 255
    1e96:	39 07       	cpc	r19, r25
    1e98:	49 07       	cpc	r20, r25
    1e9a:	59 07       	cpc	r21, r25
    1e9c:	79 f4       	brne	.+30     	; 0x1ebc <_ZN17cmdProcessorClass11readCommandEv+0x398>
            Ethernet1.getCmdClient().print(F("ERROR: ")); Ethernet1.getCmdClient().print(pch);
    1e9e:	65 ec       	ldi	r22, 0xC5	; 197
    1ea0:	7d e0       	ldi	r23, 0x0D	; 13
    1ea2:	8a ed       	ldi	r24, 0xDA	; 218
    1ea4:	97 e0       	ldi	r25, 0x07	; 7
    1ea6:	0e 94 43 4f 	call	0x9e86	; 0x9e86 <_ZN5Print5printEPK19__FlashStringHelper>
    1eaa:	b7 01       	movw	r22, r14
    1eac:	8a ed       	ldi	r24, 0xDA	; 218
    1eae:	97 e0       	ldi	r25, 0x07	; 7
    1eb0:	0e 94 76 4f 	call	0x9eec	; 0x9eec <_ZN5Print5printEPKc>
            Ethernet1.getCmdClient().println(F(" does not parse to an IP address."));
    1eb4:	63 ea       	ldi	r22, 0xA3	; 163
    1eb6:	7d e0       	ldi	r23, 0x0D	; 13
    1eb8:	0c 94 48 1a 	jmp	0x3490	; 0x3490 <__stack+0x1291>
          } else {
            EepromAccess.writeEEPromLong(EepromAccess.GATE, addr);
    1ebc:	6c e6       	ldi	r22, 0x6C	; 108
    1ebe:	70 e0       	ldi	r23, 0x00	; 0
    1ec0:	87 ef       	ldi	r24, 0xF7	; 247
    1ec2:	97 e0       	ldi	r25, 0x07	; 7
    1ec4:	0e 94 06 1b 	call	0x360c	; 0x360c <_ZN17EepromAccessClass15writeEEPromLongEil>
            Ethernet1.getCmdClient().print(F("Gateway address set to ")); Ethernet1.getCmdClient().println(pch);
    1ec8:	6b e8       	ldi	r22, 0x8B	; 139
    1eca:	7d e0       	ldi	r23, 0x0D	; 13
    1ecc:	7c c0       	rjmp	.+248    	; 0x1fc6 <_ZN17cmdProcessorClass11readCommandEv+0x4a2>
          }
        }
      } else {
        
      if ( strcmp(pch, "subnet") == 0) {
    1ece:	6e e5       	ldi	r22, 0x5E	; 94
    1ed0:	72 e0       	ldi	r23, 0x02	; 2
    1ed2:	c7 01       	movw	r24, r14
    1ed4:	0e 94 3e 5c 	call	0xb87c	; 0xb87c <strcmp>
    1ed8:	89 2b       	or	r24, r25
    1eda:	09 f0       	breq	.+2      	; 0x1ede <_ZN17cmdProcessorClass11readCommandEv+0x3ba>
    1edc:	7a c0       	rjmp	.+244    	; 0x1fd2 <_ZN17cmdProcessorClass11readCommandEv+0x4ae>
        pch = strtok(NULL, " \r\n");  // get the next token
    1ede:	6c e0       	ldi	r22, 0x0C	; 12
    1ee0:	72 e0       	ldi	r23, 0x02	; 2
    1ee2:	80 e0       	ldi	r24, 0x00	; 0
    1ee4:	90 e0       	ldi	r25, 0x00	; 0
    1ee6:	0e 94 1a 5c 	call	0xb834	; 0xb834 <strtok>
    1eea:	7c 01       	movw	r14, r24

        if (pch == 0) {
    1eec:	00 97       	sbiw	r24, 0x00	; 0
    1eee:	21 f5       	brne	.+72     	; 0x1f38 <_ZN17cmdProcessorClass11readCommandEv+0x414>
          if (EepromAccess.readEEPromLong(EepromAccess.IP)==0) {
    1ef0:	64 e6       	ldi	r22, 0x64	; 100
    1ef2:	70 e0       	ldi	r23, 0x00	; 0
    1ef4:	87 ef       	ldi	r24, 0xF7	; 247
    1ef6:	97 e0       	ldi	r25, 0x07	; 7
    1ef8:	0e 94 d4 1a 	call	0x35a8	; 0x35a8 <_ZN17EepromAccessClass14readEEPromLongEi>
    1efc:	67 2b       	or	r22, r23
    1efe:	68 2b       	or	r22, r24
    1f00:	69 2b       	or	r22, r25
    1f02:	21 f4       	brne	.+8      	; 0x1f0c <_ZN17cmdProcessorClass11readCommandEv+0x3e8>
            Ethernet1.getCmdClient().println(F("0.0.0.0"));  // set through DHCP
    1f04:	63 e8       	ldi	r22, 0x83	; 131
    1f06:	7d e0       	ldi	r23, 0x0D	; 13
    1f08:	0c 94 48 1a 	jmp	0x3490	; 0x3490 <__stack+0x1291>
          } else {
            Ethernet1.getCmdClient().println( Ethernet1.longToIP( EepromAccess.readEEPromLong(EepromAccess.SUB)));
    1f0c:	60 e7       	ldi	r22, 0x70	; 112
    1f0e:	70 e0       	ldi	r23, 0x00	; 0
    1f10:	87 ef       	ldi	r24, 0xF7	; 247
    1f12:	97 e0       	ldi	r25, 0x07	; 7
    1f14:	0e 94 d4 1a 	call	0x35a8	; 0x35a8 <_ZN17EepromAccessClass14readEEPromLongEi>
    1f18:	9b 01       	movw	r18, r22
    1f1a:	ac 01       	movw	r20, r24
    1f1c:	6d e9       	ldi	r22, 0x9D	; 157
    1f1e:	77 e0       	ldi	r23, 0x07	; 7
    1f20:	ce 01       	movw	r24, r28
    1f22:	01 96       	adiw	r24, 0x01	; 1
    1f24:	0e 94 c8 1c 	call	0x3990	; 0x3990 <_ZN15EthernetSupport8longToIPEm>
    1f28:	be 01       	movw	r22, r28
    1f2a:	6f 5f       	subi	r22, 0xFF	; 255
    1f2c:	7f 4f       	sbci	r23, 0xFF	; 255
    1f2e:	8a ed       	ldi	r24, 0xDA	; 218
    1f30:	97 e0       	ldi	r25, 0x07	; 7
    1f32:	0e 94 ca 4f 	call	0x9f94	; 0x9f94 <_ZN5Print7printlnERK9Printable>
    1f36:	f0 c7       	rjmp	.+4064   	; 0x2f18 <__stack+0xd19>
    1f38:	bc 01       	movw	r22, r24
          }
        } else {
          unsigned long addr = Ethernet1.IPtoLong(pch);
    1f3a:	ce 01       	movw	r24, r28
    1f3c:	01 96       	adiw	r24, 0x01	; 1
    1f3e:	0e 94 28 53 	call	0xa650	; 0xa650 <_ZN6StringC1EPKc>
    1f42:	be 01       	movw	r22, r28
    1f44:	6f 5f       	subi	r22, 0xFF	; 255
    1f46:	7f 4f       	sbci	r23, 0xFF	; 255
    1f48:	8d e9       	ldi	r24, 0x9D	; 157
    1f4a:	97 e0       	ldi	r25, 0x07	; 7
    1f4c:	0e 94 a0 1b 	call	0x3740	; 0x3740 <_ZN15EthernetSupport8IPtoLongE6String>
    1f50:	9b 01       	movw	r18, r22
    1f52:	ac 01       	movw	r20, r24
    1f54:	ce 01       	movw	r24, r28
    1f56:	01 96       	adiw	r24, 0x01	; 1
    1f58:	a9 96       	adiw	r28, 0x29	; 41
    1f5a:	2f af       	std	Y+63, r18	; 0x3f
    1f5c:	a9 97       	sbiw	r28, 0x29	; 41
    1f5e:	a6 96       	adiw	r28, 0x26	; 38
    1f60:	3f af       	std	Y+63, r19	; 0x3f
    1f62:	a6 97       	sbiw	r28, 0x26	; 38
    1f64:	a8 96       	adiw	r28, 0x28	; 40
    1f66:	4f af       	std	Y+63, r20	; 0x3f
    1f68:	a8 97       	sbiw	r28, 0x28	; 40
    1f6a:	a7 96       	adiw	r28, 0x27	; 39
    1f6c:	5f af       	std	Y+63, r21	; 0x3f
    1f6e:	a7 97       	sbiw	r28, 0x27	; 39
    1f70:	0e 94 c0 52 	call	0xa580	; 0xa580 <_ZN6StringD1Ev>
    1f74:	a9 96       	adiw	r28, 0x29	; 41
          if ((long)addr == -1) {
    1f76:	2f ad       	ldd	r18, Y+63	; 0x3f
    1f78:	a9 97       	sbiw	r28, 0x29	; 41
    1f7a:	a6 96       	adiw	r28, 0x26	; 38
    1f7c:	3f ad       	ldd	r19, Y+63	; 0x3f
    1f7e:	a6 97       	sbiw	r28, 0x26	; 38
    1f80:	a8 96       	adiw	r28, 0x28	; 40
    1f82:	4f ad       	ldd	r20, Y+63	; 0x3f
    1f84:	a8 97       	sbiw	r28, 0x28	; 40
    1f86:	a7 96       	adiw	r28, 0x27	; 39
    1f88:	5f ad       	ldd	r21, Y+63	; 0x3f
    1f8a:	a7 97       	sbiw	r28, 0x27	; 39
    1f8c:	2f 3f       	cpi	r18, 0xFF	; 255
    1f8e:	ef ef       	ldi	r30, 0xFF	; 255
    1f90:	3e 07       	cpc	r19, r30
    1f92:	4e 07       	cpc	r20, r30
    1f94:	5e 07       	cpc	r21, r30
    1f96:	79 f4       	brne	.+30     	; 0x1fb6 <_ZN17cmdProcessorClass11readCommandEv+0x492>
    1f98:	6b e7       	ldi	r22, 0x7B	; 123
            Ethernet1.getCmdClient().print(F("ERROR: ")); Ethernet1.getCmdClient().print(pch);
    1f9a:	7d e0       	ldi	r23, 0x0D	; 13
    1f9c:	8a ed       	ldi	r24, 0xDA	; 218
    1f9e:	97 e0       	ldi	r25, 0x07	; 7
    1fa0:	0e 94 43 4f 	call	0x9e86	; 0x9e86 <_ZN5Print5printEPK19__FlashStringHelper>
    1fa4:	b7 01       	movw	r22, r14
    1fa6:	8a ed       	ldi	r24, 0xDA	; 218
    1fa8:	97 e0       	ldi	r25, 0x07	; 7
    1faa:	0e 94 76 4f 	call	0x9eec	; 0x9eec <_ZN5Print5printEPKc>
    1fae:	69 e5       	ldi	r22, 0x59	; 89
            Ethernet1.getCmdClient().println(F(" does not parse to an IP address."));
    1fb0:	7d e0       	ldi	r23, 0x0D	; 13
    1fb2:	0c 94 48 1a 	jmp	0x3490	; 0x3490 <__stack+0x1291>
    1fb6:	60 e7       	ldi	r22, 0x70	; 112
          } else {
            EepromAccess.writeEEPromLong(EepromAccess.SUB, addr);
    1fb8:	70 e0       	ldi	r23, 0x00	; 0
    1fba:	87 ef       	ldi	r24, 0xF7	; 247
    1fbc:	97 e0       	ldi	r25, 0x07	; 7
    1fbe:	0e 94 06 1b 	call	0x360c	; 0x360c <_ZN17EepromAccessClass15writeEEPromLongEil>
    1fc2:	65 e4       	ldi	r22, 0x45	; 69
            Ethernet1.getCmdClient().print(F("Subnet mask set to ")); Ethernet1.getCmdClient().println(pch);
    1fc4:	7d e0       	ldi	r23, 0x0D	; 13
    1fc6:	8a ed       	ldi	r24, 0xDA	; 218
    1fc8:	97 e0       	ldi	r25, 0x07	; 7
    1fca:	0e 94 43 4f 	call	0x9e86	; 0x9e86 <_ZN5Print5printEPK19__FlashStringHelper>
    1fce:	b7 01       	movw	r22, r14
    1fd0:	9f c7       	rjmp	.+3902   	; 0x2f10 <__stack+0xd11>
    1fd2:	65 e6       	ldi	r22, 0x65	; 101
          }
        }
      } else {
        
      if ( strcmp(pch, "stop") == 0) {
    1fd4:	72 e0       	ldi	r23, 0x02	; 2
    1fd6:	c7 01       	movw	r24, r14
    1fd8:	0e 94 3e 5c 	call	0xb87c	; 0xb87c <strcmp>
    1fdc:	89 2b       	or	r24, r25
    1fde:	41 f4       	brne	.+16     	; 0x1ff0 <_ZN17cmdProcessorClass11readCommandEv+0x4cc>
    1fe0:	8e e6       	ldi	r24, 0x6E	; 110
        MCtrl.stopMoving();
    1fe2:	97 e0       	ldi	r25, 0x07	; 7
    1fe4:	0e 94 f6 27 	call	0x4fec	; 0x4fec <_ZN8MM3Class10stopMovingEv>
    1fe8:	6c e3       	ldi	r22, 0x3C	; 60
        Ethernet1.getCmdClient().println(F("Stopped."));
    1fea:	7d e0       	ldi	r23, 0x0D	; 13
    1fec:	0c 94 48 1a 	jmp	0x3490	; 0x3490 <__stack+0x1291>
    1ff0:	6a e6       	ldi	r22, 0x6A	; 106
      } else {
        
      if ( strcmp(pch, "up_revolutions") == 0) {
    1ff2:	72 e0       	ldi	r23, 0x02	; 2
    1ff4:	c7 01       	movw	r24, r14
    1ff6:	0e 94 3e 5c 	call	0xb87c	; 0xb87c <strcmp>
    1ffa:	89 2b       	or	r24, r25
    1ffc:	31 f5       	brne	.+76     	; 0x204a <_ZN17cmdProcessorClass11readCommandEv+0x526>
    1ffe:	c8 01       	movw	r24, r16
        int speedPct = parseMove();
    2000:	41 dd       	rcall	.-1406   	; 0x1a84 <_ZN17cmdProcessorClass9parseMoveEv>
    2002:	7c 01       	movw	r14, r24
    2004:	02 97       	sbiw	r24, 0x02	; 2
    2006:	83 36       	cpi	r24, 0x63	; 99
        if (speedPct < 2 || speedPct > 100 || moveTarget <= 0.0) {
    2008:	91 05       	cpc	r25, r1
    200a:	78 f4       	brcc	.+30     	; 0x202a <_ZN17cmdProcessorClass11readCommandEv+0x506>
    200c:	20 e0       	ldi	r18, 0x00	; 0
    200e:	30 e0       	ldi	r19, 0x00	; 0
    2010:	a9 01       	movw	r20, r18
    2012:	60 91 a7 06 	lds	r22, 0x06A7
    2016:	70 91 a8 06 	lds	r23, 0x06A8
    201a:	80 91 a9 06 	lds	r24, 0x06A9
    201e:	90 91 aa 06 	lds	r25, 0x06AA
    2022:	0e 94 a2 55 	call	0xab44	; 0xab44 <__cmpsf2>
    2026:	18 16       	cp	r1, r24
    2028:	1c f0       	brlt	.+6      	; 0x2030 <_ZN17cmdProcessorClass11readCommandEv+0x50c>
    202a:	6e e2       	ldi	r22, 0x2E	; 46
    202c:	7d e0       	ldi	r23, 0x0D	; 13
          Ethernet1.getCmdClient().print(F("Bad command: ")); Ethernet1.getCmdClient().println(cmdBuf);
    202e:	6b c7       	rjmp	.+3798   	; 0x2f06 <__stack+0xd07>
    2030:	80 91 76 07 	lds	r24, 0x0776
    2034:	90 91 77 07 	lds	r25, 0x0777
    2038:	85 70       	andi	r24, 0x05	; 5
    203a:	99 27       	eor	r25, r25
    203c:	89 2b       	or	r24, r25
    203e:	09 f4       	brne	.+2      	; 0x2042 <_ZN17cmdProcessorClass11readCommandEv+0x51e>
        } else {
        if ( MCtrl.isNoRaise() || MCtrl.isBrake() ) { 
    2040:	71 c7       	rjmp	.+3810   	; 0x2f24 <__stack+0xd25>
    2042:	60 e0       	ldi	r22, 0x00	; 0
    2044:	7d e0       	ldi	r23, 0x0D	; 13
          Ethernet1.getCmdClient().println(F("Cannot raise due to NO_RAISE or E_STOP input."));
    2046:	0c 94 48 1a 	jmp	0x3490	; 0x3490 <__stack+0x1291>
    204a:	69 e7       	ldi	r22, 0x79	; 121
    204c:	72 e0       	ldi	r23, 0x02	; 2
          Ethernet1.getCmdClient().print(speedPct); Ethernet1.getCmdClient().println(F(" percent of full speed."));
          checkIfMoving();
        }}
      } else {
        
      if ( strcmp(pch, "down_revolutions") == 0) {
    204e:	c7 01       	movw	r24, r14
    2050:	0e 94 3e 5c 	call	0xb87c	; 0xb87c <strcmp>
    2054:	89 2b       	or	r24, r25
    2056:	31 f5       	brne	.+76     	; 0x20a4 <_ZN17cmdProcessorClass11readCommandEv+0x580>
    2058:	c8 01       	movw	r24, r16
    205a:	14 dd       	rcall	.-1496   	; 0x1a84 <_ZN17cmdProcessorClass9parseMoveEv>
        int speedPct = parseMove();
    205c:	7c 01       	movw	r14, r24
    205e:	02 97       	sbiw	r24, 0x02	; 2
    2060:	83 36       	cpi	r24, 0x63	; 99
    2062:	91 05       	cpc	r25, r1
        if (speedPct < 2 || speedPct > 100 || moveTarget <= 0.0) {
    2064:	78 f4       	brcc	.+30     	; 0x2084 <_ZN17cmdProcessorClass11readCommandEv+0x560>
    2066:	20 e0       	ldi	r18, 0x00	; 0
    2068:	30 e0       	ldi	r19, 0x00	; 0
    206a:	a9 01       	movw	r20, r18
    206c:	60 91 a7 06 	lds	r22, 0x06A7
    2070:	70 91 a8 06 	lds	r23, 0x06A8
    2074:	80 91 a9 06 	lds	r24, 0x06A9
    2078:	90 91 aa 06 	lds	r25, 0x06AA
    207c:	0e 94 a2 55 	call	0xab44	; 0xab44 <__cmpsf2>
    2080:	18 16       	cp	r1, r24
    2082:	1c f0       	brlt	.+6      	; 0x208a <_ZN17cmdProcessorClass11readCommandEv+0x566>
    2084:	6e eb       	ldi	r22, 0xBE	; 190
    2086:	7c e0       	ldi	r23, 0x0C	; 12
    2088:	3e c7       	rjmp	.+3708   	; 0x2f06 <__stack+0xd07>
          Ethernet1.getCmdClient().print(F("Bad command: ")); Ethernet1.getCmdClient().println(cmdBuf);
    208a:	80 91 76 07 	lds	r24, 0x0776
    208e:	90 91 77 07 	lds	r25, 0x0777
    2092:	86 70       	andi	r24, 0x06	; 6
    2094:	99 27       	eor	r25, r25
    2096:	89 2b       	or	r24, r25
    2098:	09 f4       	brne	.+2      	; 0x209c <_ZN17cmdProcessorClass11readCommandEv+0x578>
    209a:	7a c7       	rjmp	.+3828   	; 0x2f90 <__stack+0xd91>
        } else {
        if ( MCtrl.isNoLower() || MCtrl.isBrake() ) { 
    209c:	60 e9       	ldi	r22, 0x90	; 144
    209e:	7c e0       	ldi	r23, 0x0C	; 12
    20a0:	0c 94 48 1a 	jmp	0x3490	; 0x3490 <__stack+0x1291>
          Ethernet1.getCmdClient().println(F("Cannot lower due to NO_LOWER or E_STOP input."));
    20a4:	6a e8       	ldi	r22, 0x8A	; 138
    20a6:	72 e0       	ldi	r23, 0x02	; 2
    20a8:	c7 01       	movw	r24, r14
          Ethernet1.getCmdClient().print(speedPct); Ethernet1.getCmdClient().println(F(" percent of full speed."));
          checkIfMoving();
        }}
      } else {
        
      if ( strcmp(pch, "up_distance") == 0) {
    20aa:	0e 94 3e 5c 	call	0xb87c	; 0xb87c <strcmp>
    20ae:	89 2b       	or	r24, r25
    20b0:	01 f5       	brne	.+64     	; 0x20f2 <_ZN17cmdProcessorClass11readCommandEv+0x5ce>
    20b2:	c8 01       	movw	r24, r16
    20b4:	e7 dc       	rcall	.-1586   	; 0x1a84 <_ZN17cmdProcessorClass9parseMoveEv>
    20b6:	7c 01       	movw	r14, r24
        int speedPct = parseMove();
    20b8:	82 30       	cpi	r24, 0x02	; 2
    20ba:	91 05       	cpc	r25, r1
    20bc:	0c f4       	brge	.+2      	; 0x20c0 <_ZN17cmdProcessorClass11readCommandEv+0x59c>
    20be:	9d c7       	rjmp	.+3898   	; 0x2ffa <__stack+0xdfb>
        if (speedPct < 2 || speedPct > posFB.getFeedbackMaxSpeed() || moveTarget <= 0.0) {
    20c0:	80 91 b3 06 	lds	r24, 0x06B3
    20c4:	90 91 b4 06 	lds	r25, 0x06B4
    20c8:	8e 15       	cp	r24, r14
    20ca:	9f 05       	cpc	r25, r15
    20cc:	0c f4       	brge	.+2      	; 0x20d0 <_ZN17cmdProcessorClass11readCommandEv+0x5ac>
    20ce:	95 c7       	rjmp	.+3882   	; 0x2ffa <__stack+0xdfb>
    20d0:	20 e0       	ldi	r18, 0x00	; 0
    20d2:	30 e0       	ldi	r19, 0x00	; 0
    20d4:	a9 01       	movw	r20, r18
    20d6:	60 91 a7 06 	lds	r22, 0x06A7
    20da:	70 91 a8 06 	lds	r23, 0x06A8
    20de:	80 91 a9 06 	lds	r24, 0x06A9
    20e2:	90 91 aa 06 	lds	r25, 0x06AA
    20e6:	0e 94 a2 55 	call	0xab44	; 0xab44 <__cmpsf2>
    20ea:	18 16       	cp	r1, r24
    20ec:	0c f4       	brge	.+2      	; 0x20f0 <_ZN17cmdProcessorClass11readCommandEv+0x5cc>
    20ee:	a3 c7       	rjmp	.+3910   	; 0x3036 <__stack+0xe37>
    20f0:	84 c7       	rjmp	.+3848   	; 0x2ffa <__stack+0xdfb>
    20f2:	66 e9       	ldi	r22, 0x96	; 150
    20f4:	72 e0       	ldi	r23, 0x02	; 2
    20f6:	c7 01       	movw	r24, r14
    20f8:	0e 94 3e 5c 	call	0xb87c	; 0xb87c <strcmp>
            Ethernet1.getCmdClient().println(F(" No recent position feedback."));
          }
        }}
      } else {
        
      if ( strcmp(pch, "down_distance") == 0) {
    20fc:	89 2b       	or	r24, r25
    20fe:	19 f5       	brne	.+70     	; 0x2146 <_ZN17cmdProcessorClass11readCommandEv+0x622>
    2100:	c8 01       	movw	r24, r16
    2102:	c0 dc       	rcall	.-1664   	; 0x1a84 <_ZN17cmdProcessorClass9parseMoveEv>
    2104:	7c 01       	movw	r14, r24
    2106:	82 e0       	ldi	r24, 0x02	; 2
        int speedPct = parseMove();
    2108:	e8 16       	cp	r14, r24
    210a:	f1 04       	cpc	r15, r1
    210c:	14 f4       	brge	.+4      	; 0x2112 <_ZN17cmdProcessorClass11readCommandEv+0x5ee>
    210e:	0c 94 9f 18 	jmp	0x313e	; 0x313e <__stack+0xf3f>
        if (speedPct < 2 || speedPct > posFB.getFeedbackMaxSpeed() || moveTarget <= 0.0) {
    2112:	80 91 b3 06 	lds	r24, 0x06B3
    2116:	90 91 b4 06 	lds	r25, 0x06B4
    211a:	8e 15       	cp	r24, r14
    211c:	9f 05       	cpc	r25, r15
    211e:	14 f4       	brge	.+4      	; 0x2124 <_ZN17cmdProcessorClass11readCommandEv+0x600>
    2120:	0c 94 9f 18 	jmp	0x313e	; 0x313e <__stack+0xf3f>
    2124:	20 e0       	ldi	r18, 0x00	; 0
    2126:	30 e0       	ldi	r19, 0x00	; 0
    2128:	a9 01       	movw	r20, r18
    212a:	60 91 a7 06 	lds	r22, 0x06A7
    212e:	70 91 a8 06 	lds	r23, 0x06A8
    2132:	80 91 a9 06 	lds	r24, 0x06A9
    2136:	90 91 aa 06 	lds	r25, 0x06AA
    213a:	0e 94 a2 55 	call	0xab44	; 0xab44 <__cmpsf2>
    213e:	18 16       	cp	r1, r24
    2140:	0c f4       	brge	.+2      	; 0x2144 <_ZN17cmdProcessorClass11readCommandEv+0x620>
    2142:	f2 c7       	rjmp	.+4068   	; 0x3128 <__stack+0xf29>
    2144:	fc c7       	rjmp	.+4088   	; 0x313e <__stack+0xf3f>
    2146:	64 ea       	ldi	r22, 0xA4	; 164
    2148:	72 e0       	ldi	r23, 0x02	; 2
    214a:	c7 01       	movw	r24, r14
    214c:	0e 94 3e 5c 	call	0xb87c	; 0xb87c <strcmp>
    2150:	89 2b       	or	r24, r25
    2152:	91 f5       	brne	.+100    	; 0x21b8 <_ZN17cmdProcessorClass11readCommandEv+0x694>
            Ethernet1.getCmdClient().println(F(" No recent position feedback."));
          }
        }}
      } else {
        
      if ( strcmp(pch, "move_to_revolution") == 0) {
    2154:	c8 01       	movw	r24, r16
    2156:	96 dc       	rcall	.-1748   	; 0x1a84 <_ZN17cmdProcessorClass9parseMoveEv>
    2158:	5c 01       	movw	r10, r24
    215a:	02 97       	sbiw	r24, 0x02	; 2
    215c:	83 36       	cpi	r24, 0x63	; 99
    215e:	91 05       	cpc	r25, r1
    2160:	18 f0       	brcs	.+6      	; 0x2168 <_ZN17cmdProcessorClass11readCommandEv+0x644>
        int speedPct = parseMove();
    2162:	64 e6       	ldi	r22, 0x64	; 100
    2164:	7a e0       	ldi	r23, 0x0A	; 10
    2166:	cf c6       	rjmp	.+3486   	; 0x2f06 <__stack+0xd07>
    2168:	c0 90 6e 07 	lds	r12, 0x076E
        if (speedPct < 2 || speedPct > 100) {
    216c:	d0 90 6f 07 	lds	r13, 0x076F
    2170:	e0 90 70 07 	lds	r14, 0x0770
          Ethernet1.getCmdClient().print(F("Bad command: ")); Ethernet1.getCmdClient().println(cmdBuf);
    2174:	f0 90 71 07 	lds	r15, 0x0771
  void setDTerm(unsigned int n);
  void setPIDScalar(unsigned int n);
  void setVFF(unsigned int n);
  void storeTuning();

  double getCurrPos() { return m_currPos; }
    2178:	40 90 a7 06 	lds	r4, 0x06A7
    217c:	50 90 a8 06 	lds	r5, 0x06A8
    2180:	60 90 a9 06 	lds	r6, 0x06A9
    2184:	70 90 aa 06 	lds	r7, 0x06AA
        } else {
        if ( (MCtrl.getCurrPos() < moveTarget) && (MCtrl.isNoLower() || MCtrl.isBrake() )) { 
    2188:	a3 01       	movw	r20, r6
    218a:	92 01       	movw	r18, r4
    218c:	c7 01       	movw	r24, r14
    218e:	b6 01       	movw	r22, r12
    2190:	0e 94 a2 55 	call	0xab44	; 0xab44 <__cmpsf2>
    2194:	87 fd       	sbrc	r24, 7
    2196:	02 c0       	rjmp	.+4      	; 0x219c <_ZN17cmdProcessorClass11readCommandEv+0x678>
    2198:	0c 94 28 19 	jmp	0x3250	; 0x3250 <__stack+0x1051>
    219c:	80 91 76 07 	lds	r24, 0x0776
    21a0:	90 91 77 07 	lds	r25, 0x0777
    21a4:	86 70       	andi	r24, 0x06	; 6
    21a6:	99 27       	eor	r25, r25
    21a8:	89 2b       	or	r24, r25
    21aa:	11 f4       	brne	.+4      	; 0x21b0 <_ZN17cmdProcessorClass11readCommandEv+0x68c>
    21ac:	0c 94 28 19 	jmp	0x3250	; 0x3250 <__stack+0x1051>
    21b0:	66 e3       	ldi	r22, 0x36	; 54
    21b2:	7a e0       	ldi	r23, 0x0A	; 10
    21b4:	0c 94 48 1a 	jmp	0x3490	; 0x3490 <__stack+0x1291>
    21b8:	67 eb       	ldi	r22, 0xB7	; 183
    21ba:	72 e0       	ldi	r23, 0x02	; 2
    21bc:	c7 01       	movw	r24, r14
    21be:	0e 94 3e 5c 	call	0xb87c	; 0xb87c <strcmp>
          Ethernet1.getCmdClient().println(F("Cannot lower due to NO_LOWER or E_STOP input."));
    21c2:	89 2b       	or	r24, r25
    21c4:	a1 f4       	brne	.+40     	; 0x21ee <_ZN17cmdProcessorClass11readCommandEv+0x6ca>
    21c6:	c8 01       	movw	r24, r16
          Ethernet1.getCmdClient().print(speedPct); Ethernet1.getCmdClient().println(F(" percent of full speed."));
          checkIfMoving();
        }}}
      } else {
        
      if ( strcmp(pch, "move_to_position") == 0) {
    21c8:	5d dc       	rcall	.-1862   	; 0x1a84 <_ZN17cmdProcessorClass9parseMoveEv>
    21ca:	5c 01       	movw	r10, r24
    21cc:	92 e0       	ldi	r25, 0x02	; 2
    21ce:	a9 16       	cp	r10, r25
    21d0:	b1 04       	cpc	r11, r1
    21d2:	14 f4       	brge	.+4      	; 0x21d8 <_ZN17cmdProcessorClass11readCommandEv+0x6b4>
    21d4:	0c 94 76 19 	jmp	0x32ec	; 0x32ec <__stack+0x10ed>
        int speedPct = parseMove();
    21d8:	80 91 b3 06 	lds	r24, 0x06B3
    21dc:	90 91 b4 06 	lds	r25, 0x06B4
        if (speedPct < 2 || speedPct > posFB.getFeedbackMaxSpeed()) {
    21e0:	8a 15       	cp	r24, r10
    21e2:	9b 05       	cpc	r25, r11
    21e4:	14 f4       	brge	.+4      	; 0x21ea <_ZN17cmdProcessorClass11readCommandEv+0x6c6>
    21e6:	0c 94 76 19 	jmp	0x32ec	; 0x32ec <__stack+0x10ed>
    21ea:	0c 94 94 19 	jmp	0x3328	; 0x3328 <__stack+0x1129>
    21ee:	68 ec       	ldi	r22, 0xC8	; 200
    21f0:	72 e0       	ldi	r23, 0x02	; 2
    21f2:	c7 01       	movw	r24, r14
    21f4:	0e 94 3e 5c 	call	0xb87c	; 0xb87c <strcmp>
    21f8:	89 2b       	or	r24, r25
    21fa:	59 f4       	brne	.+22     	; 0x2212 <__stack+0x13>
    21fc:	40 e0       	ldi	r20, 0x00	; 0
    21fe:	50 e0       	ldi	r21, 0x00	; 0
            Ethernet1.getCmdClient().println(F(" No recent position feedback."));
          }
        }}}
      } else {
        
      if ( strcmp(pch, "set_zero") == 0) {
    2200:	ba 01       	movw	r22, r20
    2202:	8e e6       	ldi	r24, 0x6E	; 110
    2204:	97 e0       	ldi	r25, 0x07	; 7
    2206:	0e 94 91 23 	call	0x4722	; 0x4722 <_ZN8MM3Class6setPosEd>
    220a:	64 eb       	ldi	r22, 0xB4	; 180
    220c:	78 e0       	ldi	r23, 0x08	; 8
        MCtrl.setPos(0);
    220e:	0c 94 48 1a 	jmp	0x3490	; 0x3490 <__stack+0x1291>
    2212:	61 ed       	ldi	r22, 0xD1	; 209
    2214:	72 e0       	ldi	r23, 0x02	; 2
    2216:	c7 01       	movw	r24, r14
    2218:	0e 94 3e 5c 	call	0xb87c	; 0xb87c <strcmp>
        Ethernet1.getCmdClient().println(F("Current positon set to zero."));
    221c:	89 2b       	or	r24, r25
    221e:	09 f0       	breq	.+2      	; 0x2222 <__stack+0x23>
    2220:	60 c0       	rjmp	.+192    	; 0x22e2 <__stack+0xe3>
    2222:	6c e0       	ldi	r22, 0x0C	; 12
      } else {
        
      if ( strcmp(pch, "amps_limit") == 0) {
    2224:	72 e0       	ldi	r23, 0x02	; 2
    2226:	80 e0       	ldi	r24, 0x00	; 0
    2228:	90 e0       	ldi	r25, 0x00	; 0
    222a:	0e 94 1a 5c 	call	0xb834	; 0xb834 <strtok>
    222e:	7c 01       	movw	r14, r24
    2230:	00 97       	sbiw	r24, 0x00	; 0
    2232:	49 f4       	brne	.+18     	; 0x2246 <__stack+0x47>
        pch = strtok(NULL, " \r\n");  // get the next token
    2234:	40 91 80 07 	lds	r20, 0x0780
    2238:	50 91 81 07 	lds	r21, 0x0781
    223c:	60 91 82 07 	lds	r22, 0x0782
    2240:	70 91 83 07 	lds	r23, 0x0783

        if (pch == 0) {
    2244:	dd c4       	rjmp	.+2490   	; 0x2c00 <__stack+0xa01>
          Ethernet1.getCmdClient().println(MCtrl.getAmpsLimit());
    2246:	0e 94 9c 5b 	call	0xb738	; 0xb738 <atof>
    224a:	5b 01       	movw	r10, r22
    224c:	6c 01       	movw	r12, r24
    224e:	b7 01       	movw	r22, r14
    2250:	ce 01       	movw	r24, r28
    2252:	01 96       	adiw	r24, 0x01	; 1
    2254:	0e 94 28 53 	call	0xa650	; 0xa650 <_ZN6StringC1EPKc>
        } else {
          float al = atof(pch);
    2258:	ce 01       	movw	r24, r28
    225a:	01 96       	adiw	r24, 0x01	; 1
    225c:	0e 94 b8 2f 	call	0x5f70	; 0x5f70 <_Z13isValidNumber6String>
          if (!isValidNumber(pch) || al <= 0) {  // must be greater than zero (zero disables)
    2260:	ff 24       	eor	r15, r15
    2262:	f3 94       	inc	r15
    2264:	88 23       	and	r24, r24
    2266:	51 f0       	breq	.+20     	; 0x227c <__stack+0x7d>
    2268:	20 e0       	ldi	r18, 0x00	; 0
    226a:	30 e0       	ldi	r19, 0x00	; 0
    226c:	a9 01       	movw	r20, r18
    226e:	b5 01       	movw	r22, r10
    2270:	c6 01       	movw	r24, r12
    2272:	0e 94 a2 55 	call	0xab44	; 0xab44 <__cmpsf2>
    2276:	18 16       	cp	r1, r24
    2278:	0c f4       	brge	.+2      	; 0x227c <__stack+0x7d>
    227a:	f1 2c       	mov	r15, r1
    227c:	ce 01       	movw	r24, r28
    227e:	01 96       	adiw	r24, 0x01	; 1
    2280:	0e 94 c0 52 	call	0xa580	; 0xa580 <_ZN6StringD1Ev>
    2284:	ff 20       	and	r15, r15
    2286:	19 f0       	breq	.+6      	; 0x228e <__stack+0x8f>
    2288:	66 ea       	ldi	r22, 0xA6	; 166
    228a:	78 e0       	ldi	r23, 0x08	; 8
    228c:	3c c6       	rjmp	.+3192   	; 0x2f06 <__stack+0xd07>
    228e:	80 90 0f 05 	lds	r8, 0x050F
    2292:	90 90 10 05 	lds	r9, 0x0510
    2296:	e0 90 11 05 	lds	r14, 0x0511
            Ethernet1.getCmdClient().print(F("Bad command: ")); Ethernet1.getCmdClient().println(cmdBuf);
    229a:	f0 90 12 05 	lds	r15, 0x0512
    229e:	94 01       	movw	r18, r8
          } else {
            if (al > MCtrl.MAX_AMPS) { al = MCtrl.MAX_AMPS; }  // can't go over MAX_AMPS
    22a0:	a7 01       	movw	r20, r14
    22a2:	b5 01       	movw	r22, r10
    22a4:	c6 01       	movw	r24, r12
    22a6:	0e 94 f1 56 	call	0xade2	; 0xade2 <__gesf2>
    22aa:	18 16       	cp	r1, r24
    22ac:	14 f0       	brlt	.+4      	; 0x22b2 <__stack+0xb3>
    22ae:	45 01       	movw	r8, r10
    22b0:	76 01       	movw	r14, r12
    22b2:	a4 01       	movw	r20, r8
    22b4:	b7 01       	movw	r22, r14
    22b6:	8e e6       	ldi	r24, 0x6E	; 110
    22b8:	97 e0       	ldi	r25, 0x07	; 7
    22ba:	0e 94 cb 25 	call	0x4b96	; 0x4b96 <_ZN8MM3Class12setAmpsLimitEf>
    22be:	6a e8       	ldi	r22, 0x8A	; 138
        pch = strtok(NULL, " \r\n");  // get the next token

        if (pch == 0) {
          Ethernet1.getCmdClient().println(MCtrl.getAmpsLimit());
        } else {
          float al = atof(pch);
    22c0:	78 e0       	ldi	r23, 0x08	; 8
    22c2:	8a ed       	ldi	r24, 0xDA	; 218
          if (!isValidNumber(pch) || al <= 0) {  // must be greater than zero (zero disables)
            Ethernet1.getCmdClient().print(F("Bad command: ")); Ethernet1.getCmdClient().println(cmdBuf);
          } else {
            if (al > MCtrl.MAX_AMPS) { al = MCtrl.MAX_AMPS; }  // can't go over MAX_AMPS
            MCtrl.setAmpsLimit(al);            
    22c4:	97 e0       	ldi	r25, 0x07	; 7
    22c6:	0e 94 43 4f 	call	0x9e86	; 0x9e86 <_ZN5Print5printEPK19__FlashStringHelper>
    22ca:	22 e0       	ldi	r18, 0x02	; 2
    22cc:	30 e0       	ldi	r19, 0x00	; 0
    22ce:	a4 01       	movw	r20, r8
            Ethernet1.getCmdClient().print(F("Motor current limit set to ")); Ethernet1.getCmdClient().print(al);
    22d0:	b7 01       	movw	r22, r14
    22d2:	8a ed       	ldi	r24, 0xDA	; 218
    22d4:	97 e0       	ldi	r25, 0x07	; 7
    22d6:	0e 94 c7 51 	call	0xa38e	; 0xa38e <_ZN5Print5printEdi>
    22da:	63 e8       	ldi	r22, 0x83	; 131
    22dc:	78 e0       	ldi	r23, 0x08	; 8
    22de:	0c 94 48 1a 	jmp	0x3490	; 0x3490 <__stack+0x1291>
    22e2:	6c ed       	ldi	r22, 0xDC	; 220
    22e4:	72 e0       	ldi	r23, 0x02	; 2
    22e6:	c7 01       	movw	r24, r14
    22e8:	0e 94 3e 5c 	call	0xb87c	; 0xb87c <strcmp>
            Ethernet1.getCmdClient().println(F(" amps."));
    22ec:	89 2b       	or	r24, r25
    22ee:	09 f0       	breq	.+2      	; 0x22f2 <__stack+0xf3>
    22f0:	c3 c0       	rjmp	.+390    	; 0x2478 <__stack+0x279>
    22f2:	6c e0       	ldi	r22, 0x0C	; 12
          }
        }
      } else {
        
      if ( strcmp(pch, "max_revolutions") == 0) {
    22f4:	72 e0       	ldi	r23, 0x02	; 2
    22f6:	80 e0       	ldi	r24, 0x00	; 0
    22f8:	90 e0       	ldi	r25, 0x00	; 0
    22fa:	0e 94 1a 5c 	call	0xb834	; 0xb834 <strtok>
    22fe:	5c 01       	movw	r10, r24
    2300:	00 97       	sbiw	r24, 0x00	; 0
    2302:	49 f4       	brne	.+18     	; 0x2316 <__stack+0x117>
        pch = strtok(NULL, " \r\n");  // get the next token
    2304:	40 91 8d 07 	lds	r20, 0x078D
    2308:	50 91 8e 07 	lds	r21, 0x078E
    230c:	60 91 8f 07 	lds	r22, 0x078F
    2310:	70 91 90 07 	lds	r23, 0x0790

        if (pch == 0) {
    2314:	75 c4       	rjmp	.+2282   	; 0x2c00 <__stack+0xa01>
          Ethernet1.getCmdClient().println(Motor.getMaxRevolutions());
    2316:	0e 94 9c 5b 	call	0xb738	; 0xb738 <atof>
    231a:	6b 01       	movw	r12, r22
    231c:	7c 01       	movw	r14, r24
    231e:	b5 01       	movw	r22, r10
    2320:	ce 01       	movw	r24, r28
    2322:	01 96       	adiw	r24, 0x01	; 1
    2324:	0e 94 28 53 	call	0xa650	; 0xa650 <_ZN6StringC1EPKc>
        } else {
          float mr = atof(pch);
    2328:	ce 01       	movw	r24, r28
    232a:	01 96       	adiw	r24, 0x01	; 1
    232c:	0e 94 b8 2f 	call	0x5f70	; 0x5f70 <_Z13isValidNumber6String>
          if (!isValidNumber(pch) || mr <= 0) {  // must be greater than zero
    2330:	bb 24       	eor	r11, r11
    2332:	b3 94       	inc	r11
    2334:	88 23       	and	r24, r24
    2336:	51 f0       	breq	.+20     	; 0x234c <__stack+0x14d>
    2338:	20 e0       	ldi	r18, 0x00	; 0
    233a:	30 e0       	ldi	r19, 0x00	; 0
    233c:	a9 01       	movw	r20, r18
    233e:	c7 01       	movw	r24, r14
    2340:	b6 01       	movw	r22, r12
    2342:	0e 94 a2 55 	call	0xab44	; 0xab44 <__cmpsf2>
    2346:	18 16       	cp	r1, r24
    2348:	0c f4       	brge	.+2      	; 0x234c <__stack+0x14d>
    234a:	b1 2c       	mov	r11, r1
    234c:	ce 01       	movw	r24, r28
    234e:	01 96       	adiw	r24, 0x01	; 1
    2350:	0e 94 c0 52 	call	0xa580	; 0xa580 <_ZN6StringD1Ev>
    2354:	bb 20       	and	r11, r11
    2356:	79 f0       	breq	.+30     	; 0x2376 <__stack+0x177>
    2358:	65 e7       	ldi	r22, 0x75	; 117
    235a:	78 e0       	ldi	r23, 0x08	; 8
    235c:	8a ed       	ldi	r24, 0xDA	; 218
    235e:	97 e0       	ldi	r25, 0x07	; 7
    2360:	0e 94 43 4f 	call	0x9e86	; 0x9e86 <_ZN5Print5printEPK19__FlashStringHelper>
    2364:	b8 01       	movw	r22, r16
    2366:	8a ed       	ldi	r24, 0xDA	; 218
    2368:	97 e0       	ldi	r25, 0x07	; 7
            Ethernet1.getCmdClient().print(F("Bad command: ")); Ethernet1.getCmdClient().print(cmdBuf);
    236a:	0e 94 76 4f 	call	0x9eec	; 0x9eec <_ZN5Print5printEPKc>
    236e:	6f e4       	ldi	r22, 0x4F	; 79
    2370:	78 e0       	ldi	r23, 0x08	; 8
    2372:	0c 94 48 1a 	jmp	0x3490	; 0x3490 <__stack+0x1291>
    2376:	b7 01       	movw	r22, r14
    2378:	a6 01       	movw	r20, r12
    237a:	85 e8       	ldi	r24, 0x85	; 133
    237c:	97 e0       	ldi	r25, 0x07	; 7
    237e:	0e 94 92 29 	call	0x5324	; 0x5324 <_ZN10MotorClass17setMaxRevolutionsEd>
            Ethernet1.getCmdClient().println(F("  Must be a number greater than zero."));
    2382:	60 91 85 07 	lds	r22, 0x0785
    2386:	70 91 86 07 	lds	r23, 0x0786
          } else {
            Motor.setMaxRevolutions(mr);
    238a:	80 91 87 07 	lds	r24, 0x0787
    238e:	90 91 88 07 	lds	r25, 0x0788
    2392:	0e 94 3f 56 	call	0xac7e	; 0xac7e <__floatunsisf>

            // Create virtual limits that will be slightly larger than the max revolutions value
            // as a failsafe in case the arduino crashes while moving.
            MCtrl.setVirtualNegativeLimit(long(-1 * Motor.getMaxRevolutions()*Motor.getCPR()) - long(0.25*Motor.getCPR()));
    2396:	6b 01       	movw	r12, r22
    2398:	7c 01       	movw	r14, r24
    239a:	80 91 8d 07 	lds	r24, 0x078D
    239e:	90 91 8e 07 	lds	r25, 0x078E
    23a2:	a0 91 8f 07 	lds	r26, 0x078F
    23a6:	b0 91 90 07 	lds	r27, 0x0790
    23aa:	bc 01       	movw	r22, r24
    23ac:	cd 01       	movw	r24, r26
    23ae:	90 58       	subi	r25, 0x80	; 128
    23b0:	a7 01       	movw	r20, r14
    23b2:	96 01       	movw	r18, r12
    23b4:	0e 94 f5 56 	call	0xadea	; 0xadea <__mulsf3>
    23b8:	0e 94 0e 56 	call	0xac1c	; 0xac1c <__fixsfsi>
    23bc:	4b 01       	movw	r8, r22
    23be:	5c 01       	movw	r10, r24
    23c0:	20 e0       	ldi	r18, 0x00	; 0
    23c2:	30 e0       	ldi	r19, 0x00	; 0
    23c4:	40 e8       	ldi	r20, 0x80	; 128
    23c6:	5e e3       	ldi	r21, 0x3E	; 62
    23c8:	c7 01       	movw	r24, r14
    23ca:	b6 01       	movw	r22, r12
    23cc:	0e 94 f5 56 	call	0xadea	; 0xadea <__mulsf3>
    23d0:	0e 94 0e 56 	call	0xac1c	; 0xac1c <__fixsfsi>
    23d4:	75 01       	movw	r14, r10
    23d6:	64 01       	movw	r12, r8
    23d8:	c6 1a       	sub	r12, r22
    23da:	d7 0a       	sbc	r13, r23
    23dc:	e8 0a       	sbc	r14, r24
    23de:	f9 0a       	sbc	r15, r25
    23e0:	b7 01       	movw	r22, r14
    23e2:	a6 01       	movw	r20, r12
    23e4:	8e e6       	ldi	r24, 0x6E	; 110
    23e6:	97 e0       	ldi	r25, 0x07	; 7
    23e8:	0e 94 ef 23 	call	0x47de	; 0x47de <_ZN8MM3Class23setVirtualNegativeLimitEl>
    23ec:	60 91 85 07 	lds	r22, 0x0785
    23f0:	70 91 86 07 	lds	r23, 0x0786
    23f4:	80 91 87 07 	lds	r24, 0x0787
    23f8:	90 91 88 07 	lds	r25, 0x0788
    23fc:	0e 94 3f 56 	call	0xac7e	; 0xac7e <__floatunsisf>
            MCtrl.setVirtualPositiveLimit(long(     Motor.getMaxRevolutions()*Motor.getCPR()) + long(0.25*Motor.getCPR()));
    2400:	6b 01       	movw	r12, r22
    2402:	7c 01       	movw	r14, r24
    2404:	20 91 8d 07 	lds	r18, 0x078D
    2408:	30 91 8e 07 	lds	r19, 0x078E
    240c:	40 91 8f 07 	lds	r20, 0x078F
    2410:	50 91 90 07 	lds	r21, 0x0790
    2414:	0e 94 f5 56 	call	0xadea	; 0xadea <__mulsf3>
    2418:	0e 94 0e 56 	call	0xac1c	; 0xac1c <__fixsfsi>
    241c:	4b 01       	movw	r8, r22
    241e:	5c 01       	movw	r10, r24
    2420:	20 e0       	ldi	r18, 0x00	; 0
    2422:	30 e0       	ldi	r19, 0x00	; 0
    2424:	40 e8       	ldi	r20, 0x80	; 128
    2426:	5e e3       	ldi	r21, 0x3E	; 62
    2428:	c7 01       	movw	r24, r14
    242a:	b6 01       	movw	r22, r12
    242c:	0e 94 f5 56 	call	0xadea	; 0xadea <__mulsf3>
    2430:	0e 94 0e 56 	call	0xac1c	; 0xac1c <__fixsfsi>
    2434:	ab 01       	movw	r20, r22
    2436:	bc 01       	movw	r22, r24
    2438:	48 0d       	add	r20, r8
    243a:	59 1d       	adc	r21, r9
    243c:	6a 1d       	adc	r22, r10
    243e:	7b 1d       	adc	r23, r11
    2440:	8e e6       	ldi	r24, 0x6E	; 110
    2442:	97 e0       	ldi	r25, 0x07	; 7
    2444:	0e 94 35 24 	call	0x486a	; 0x486a <_ZN8MM3Class23setVirtualPositiveLimitEl>
    2448:	67 e3       	ldi	r22, 0x37	; 55
    244a:	78 e0       	ldi	r23, 0x08	; 8
    244c:	8a ed       	ldi	r24, 0xDA	; 218
    244e:	97 e0       	ldi	r25, 0x07	; 7
    2450:	0e 94 43 4f 	call	0x9e86	; 0x9e86 <_ZN5Print5printEPK19__FlashStringHelper>
    2454:	40 91 8d 07 	lds	r20, 0x078D
    2458:	50 91 8e 07 	lds	r21, 0x078E

            Ethernet1.getCmdClient().print(F("Max revolutions set to ")); Ethernet1.getCmdClient().print(Motor.getMaxRevolutions());
    245c:	60 91 8f 07 	lds	r22, 0x078F
    2460:	70 91 90 07 	lds	r23, 0x0790
    2464:	22 e0       	ldi	r18, 0x02	; 2
    2466:	30 e0       	ldi	r19, 0x00	; 0
    2468:	8a ed       	ldi	r24, 0xDA	; 218
    246a:	97 e0       	ldi	r25, 0x07	; 7
    246c:	0e 94 c7 51 	call	0xa38e	; 0xa38e <_ZN5Print5printEdi>
    2470:	69 e2       	ldi	r22, 0x29	; 41
    2472:	78 e0       	ldi	r23, 0x08	; 8
    2474:	0c 94 48 1a 	jmp	0x3490	; 0x3490 <__stack+0x1291>
    2478:	6c ee       	ldi	r22, 0xEC	; 236
    247a:	72 e0       	ldi	r23, 0x02	; 2
    247c:	c7 01       	movw	r24, r14
    247e:	0e 94 3e 5c 	call	0xb87c	; 0xb87c <strcmp>
            Ethernet1.getCmdClient().println(F(" revolutions."));
    2482:	89 2b       	or	r24, r25
    2484:	09 f0       	breq	.+2      	; 0x2488 <__stack+0x289>
    2486:	47 c0       	rjmp	.+142    	; 0x2516 <__stack+0x317>
    2488:	6c e0       	ldi	r22, 0x0C	; 12
          }        
        }
      } else {
        
      if ( strcmp(pch, "pterm") == 0) {
    248a:	72 e0       	ldi	r23, 0x02	; 2
    248c:	80 e0       	ldi	r24, 0x00	; 0
    248e:	90 e0       	ldi	r25, 0x00	; 0
    2490:	0e 94 1a 5c 	call	0xb834	; 0xb834 <strtok>
    2494:	5c 01       	movw	r10, r24
    2496:	00 97       	sbiw	r24, 0x00	; 0
    2498:	19 f4       	brne	.+6      	; 0x24a0 <__stack+0x2a1>
        pch = strtok(NULL, " \r\n");  // get the next token
    249a:	62 ef       	ldi	r22, 0xF2	; 242
    249c:	72 e0       	ldi	r23, 0x02	; 2
    249e:	4e c0       	rjmp	.+156    	; 0x253c <__stack+0x33d>
    24a0:	0e 94 bc 5b 	call	0xb778	; 0xb778 <atol>
    24a4:	6b 01       	movw	r12, r22
    24a6:	7c 01       	movw	r14, r24

        if (pch == 0) {
    24a8:	b5 01       	movw	r22, r10
    24aa:	ce 01       	movw	r24, r28

  void init();

  void readController();

  unsigned int getPTerm() { return readRegister("04"); }
    24ac:	01 96       	adiw	r24, 0x01	; 1
    24ae:	0e 94 28 53 	call	0xa650	; 0xa650 <_ZN6StringC1EPKc>
          Ethernet1.getCmdClient().println(MCtrl.getPTerm());
        } else {
          long p = atol(pch);
    24b2:	ce 01       	movw	r24, r28
    24b4:	01 96       	adiw	r24, 0x01	; 1
    24b6:	0e 94 b8 2f 	call	0x5f70	; 0x5f70 <_Z13isValidNumber6String>
          if (!isValidNumber(pch) || p < 0 || p > 65535) {  // must be positive int
    24ba:	21 e0       	ldi	r18, 0x01	; 1
    24bc:	88 23       	and	r24, r24
    24be:	49 f0       	breq	.+18     	; 0x24d2 <__stack+0x2d3>
    24c0:	f7 fc       	sbrc	r15, 7
    24c2:	07 c0       	rjmp	.+14     	; 0x24d2 <__stack+0x2d3>
    24c4:	c1 14       	cp	r12, r1
    24c6:	d1 04       	cpc	r13, r1
    24c8:	81 e0       	ldi	r24, 0x01	; 1
    24ca:	e8 06       	cpc	r14, r24
    24cc:	f1 04       	cpc	r15, r1
    24ce:	0c f4       	brge	.+2      	; 0x24d2 <__stack+0x2d3>
    24d0:	20 e0       	ldi	r18, 0x00	; 0
    24d2:	ce 01       	movw	r24, r28
    24d4:	01 96       	adiw	r24, 0x01	; 1
    24d6:	a9 96       	adiw	r28, 0x29	; 41
    24d8:	2f af       	std	Y+63, r18	; 0x3f
    24da:	a9 97       	sbiw	r28, 0x29	; 41
    24dc:	0e 94 c0 52 	call	0xa580	; 0xa580 <_ZN6StringD1Ev>
    24e0:	a9 96       	adiw	r28, 0x29	; 41
    24e2:	2f ad       	ldd	r18, Y+63	; 0x3f
    24e4:	a9 97       	sbiw	r28, 0x29	; 41
    24e6:	22 23       	and	r18, r18
    24e8:	71 f0       	breq	.+28     	; 0x2506 <__stack+0x307>
    24ea:	6b e1       	ldi	r22, 0x1B	; 27
    24ec:	78 e0       	ldi	r23, 0x08	; 8
    24ee:	8a ed       	ldi	r24, 0xDA	; 218
    24f0:	97 e0       	ldi	r25, 0x07	; 7
    24f2:	0e 94 43 4f 	call	0x9e86	; 0x9e86 <_ZN5Print5printEPK19__FlashStringHelper>
    24f6:	b8 01       	movw	r22, r16
    24f8:	8a ed       	ldi	r24, 0xDA	; 218
    24fa:	97 e0       	ldi	r25, 0x07	; 7
            Ethernet1.getCmdClient().print(F("Bad command: ")); Ethernet1.getCmdClient().print(cmdBuf);
    24fc:	0e 94 76 4f 	call	0x9eec	; 0x9eec <_ZN5Print5printEPKc>
    2500:	60 ef       	ldi	r22, 0xF0	; 240
    2502:	77 e0       	ldi	r23, 0x07	; 7
    2504:	c5 c7       	rjmp	.+3978   	; 0x3490 <__stack+0x1291>
    2506:	b6 01       	movw	r22, r12
    2508:	8e e6       	ldi	r24, 0x6E	; 110
    250a:	97 e0       	ldi	r25, 0x07	; 7
    250c:	0e 94 14 21 	call	0x4228	; 0x4228 <_ZN8MM3Class8setPTermEj>
    2510:	60 ee       	ldi	r22, 0xE0	; 224
            Ethernet1.getCmdClient().println(F("  Must be an integer from 0 through 65535."));
    2512:	77 e0       	ldi	r23, 0x07	; 7
    2514:	dd c2       	rjmp	.+1466   	; 0x2ad0 <__stack+0x8d1>
    2516:	65 ef       	ldi	r22, 0xF5	; 245
          } else {
            MCtrl.setPTerm(p);
    2518:	72 e0       	ldi	r23, 0x02	; 2
    251a:	c7 01       	movw	r24, r14
    251c:	0e 94 3e 5c 	call	0xb87c	; 0xb87c <strcmp>
    2520:	89 2b       	or	r24, r25
            Ethernet1.getCmdClient().print(F("P term set to: ")); Ethernet1.getCmdClient().println(p);
    2522:	09 f0       	breq	.+2      	; 0x2526 <__stack+0x327>
    2524:	5b c0       	rjmp	.+182    	; 0x25dc <__stack+0x3dd>
    2526:	6c e0       	ldi	r22, 0x0C	; 12
          }        
        }
      } else {
        
      if ( strcmp(pch, "iterm") == 0) {
    2528:	72 e0       	ldi	r23, 0x02	; 2
    252a:	80 e0       	ldi	r24, 0x00	; 0
    252c:	90 e0       	ldi	r25, 0x00	; 0
    252e:	0e 94 1a 5c 	call	0xb834	; 0xb834 <strtok>
    2532:	5c 01       	movw	r10, r24
    2534:	00 97       	sbiw	r24, 0x00	; 0
    2536:	b9 f4       	brne	.+46     	; 0x2566 <__stack+0x367>
        pch = strtok(NULL, " \r\n");  // get the next token
    2538:	6b ef       	ldi	r22, 0xFB	; 251
    253a:	72 e0       	ldi	r23, 0x02	; 2
    253c:	ce 01       	movw	r24, r28
    253e:	01 96       	adiw	r24, 0x01	; 1
    2540:	0e 94 28 53 	call	0xa650	; 0xa650 <_ZN6StringC1EPKc>
    2544:	be 01       	movw	r22, r28

        if (pch == 0) {
    2546:	6f 5f       	subi	r22, 0xFF	; 255
    2548:	7f 4f       	sbci	r23, 0xFF	; 255
  unsigned int getITerm() { return readRegister("05"); }
    254a:	8e e6       	ldi	r24, 0x6E	; 110
    254c:	97 e0       	ldi	r25, 0x07	; 7
    254e:	0e 94 08 1f 	call	0x3e10	; 0x3e10 <_ZN8MM3Class12readRegisterE6String>
    2552:	6b 01       	movw	r12, r22
    2554:	7c 01       	movw	r14, r24
    2556:	ce 01       	movw	r24, r28
    2558:	01 96       	adiw	r24, 0x01	; 1
    255a:	0e 94 c0 52 	call	0xa580	; 0xa580 <_ZN6StringD1Ev>
    255e:	4a e0       	ldi	r20, 0x0A	; 10
    2560:	50 e0       	ldi	r21, 0x00	; 0
    2562:	b6 01       	movw	r22, r12
    2564:	55 c1       	rjmp	.+682    	; 0x2810 <__stack+0x611>
    2566:	0e 94 bc 5b 	call	0xb778	; 0xb778 <atol>
    256a:	6b 01       	movw	r12, r22
    256c:	7c 01       	movw	r14, r24
    256e:	b5 01       	movw	r22, r10
          Ethernet1.getCmdClient().println(MCtrl.getITerm());
    2570:	ce 01       	movw	r24, r28
    2572:	01 96       	adiw	r24, 0x01	; 1
    2574:	0e 94 28 53 	call	0xa650	; 0xa650 <_ZN6StringC1EPKc>
        } else {
          long it = atol(pch);
    2578:	ce 01       	movw	r24, r28
    257a:	01 96       	adiw	r24, 0x01	; 1
    257c:	0e 94 b8 2f 	call	0x5f70	; 0x5f70 <_Z13isValidNumber6String>
          if (!isValidNumber(pch) || it < 0 || it > 65535) {  // must be positive int
    2580:	21 e0       	ldi	r18, 0x01	; 1
    2582:	88 23       	and	r24, r24
    2584:	49 f0       	breq	.+18     	; 0x2598 <__stack+0x399>
    2586:	f7 fc       	sbrc	r15, 7
    2588:	07 c0       	rjmp	.+14     	; 0x2598 <__stack+0x399>
    258a:	c1 14       	cp	r12, r1
    258c:	d1 04       	cpc	r13, r1
    258e:	91 e0       	ldi	r25, 0x01	; 1
    2590:	e9 06       	cpc	r14, r25
    2592:	f1 04       	cpc	r15, r1
    2594:	0c f4       	brge	.+2      	; 0x2598 <__stack+0x399>
    2596:	20 e0       	ldi	r18, 0x00	; 0
    2598:	ce 01       	movw	r24, r28
    259a:	01 96       	adiw	r24, 0x01	; 1
    259c:	a9 96       	adiw	r28, 0x29	; 41
    259e:	2f af       	std	Y+63, r18	; 0x3f
    25a0:	a9 97       	sbiw	r28, 0x29	; 41
    25a2:	0e 94 c0 52 	call	0xa580	; 0xa580 <_ZN6StringD1Ev>
    25a6:	a9 96       	adiw	r28, 0x29	; 41
    25a8:	2f ad       	ldd	r18, Y+63	; 0x3f
    25aa:	a9 97       	sbiw	r28, 0x29	; 41
    25ac:	22 23       	and	r18, r18
    25ae:	71 f0       	breq	.+28     	; 0x25cc <__stack+0x3cd>
    25b0:	62 ed       	ldi	r22, 0xD2	; 210
    25b2:	77 e0       	ldi	r23, 0x07	; 7
    25b4:	8a ed       	ldi	r24, 0xDA	; 218
    25b6:	97 e0       	ldi	r25, 0x07	; 7
    25b8:	0e 94 43 4f 	call	0x9e86	; 0x9e86 <_ZN5Print5printEPK19__FlashStringHelper>
    25bc:	b8 01       	movw	r22, r16
    25be:	8a ed       	ldi	r24, 0xDA	; 218
    25c0:	97 e0       	ldi	r25, 0x07	; 7
            Ethernet1.getCmdClient().print(F("Bad command: ")); Ethernet1.getCmdClient().print(cmdBuf);
    25c2:	0e 94 76 4f 	call	0x9eec	; 0x9eec <_ZN5Print5printEPKc>
    25c6:	67 ea       	ldi	r22, 0xA7	; 167
    25c8:	77 e0       	ldi	r23, 0x07	; 7
    25ca:	62 c7       	rjmp	.+3780   	; 0x3490 <__stack+0x1291>
    25cc:	b6 01       	movw	r22, r12
    25ce:	8e e6       	ldi	r24, 0x6E	; 110
    25d0:	97 e0       	ldi	r25, 0x07	; 7
    25d2:	0e 94 53 21 	call	0x42a6	; 0x42a6 <_ZN8MM3Class8setITermEj>
    25d6:	67 e9       	ldi	r22, 0x97	; 151
            Ethernet1.getCmdClient().println(F("  Must be an integer from 0 through 65535."));
    25d8:	77 e0       	ldi	r23, 0x07	; 7
    25da:	7a c2       	rjmp	.+1268   	; 0x2ad0 <__stack+0x8d1>
    25dc:	6e ef       	ldi	r22, 0xFE	; 254
          } else {
            MCtrl.setITerm(it);
    25de:	72 e0       	ldi	r23, 0x02	; 2
    25e0:	c7 01       	movw	r24, r14
    25e2:	0e 94 3e 5c 	call	0xb87c	; 0xb87c <strcmp>
    25e6:	89 2b       	or	r24, r25
            Ethernet1.getCmdClient().print(F("I term set to: "));  Ethernet1.getCmdClient().println(it);
    25e8:	09 f0       	breq	.+2      	; 0x25ec <__stack+0x3ed>
    25ea:	47 c0       	rjmp	.+142    	; 0x267a <__stack+0x47b>
    25ec:	6c e0       	ldi	r22, 0x0C	; 12
          }        
        }
      } else {
        
      if ( strcmp(pch, "dterm") == 0) {
    25ee:	72 e0       	ldi	r23, 0x02	; 2
    25f0:	80 e0       	ldi	r24, 0x00	; 0
    25f2:	90 e0       	ldi	r25, 0x00	; 0
    25f4:	0e 94 1a 5c 	call	0xb834	; 0xb834 <strtok>
    25f8:	5c 01       	movw	r10, r24
    25fa:	00 97       	sbiw	r24, 0x00	; 0
    25fc:	19 f4       	brne	.+6      	; 0x2604 <__stack+0x405>
        pch = strtok(NULL, " \r\n");  // get the next token
    25fe:	64 e0       	ldi	r22, 0x04	; 4
    2600:	73 e0       	ldi	r23, 0x03	; 3
    2602:	9c cf       	rjmp	.-200    	; 0x253c <__stack+0x33d>
    2604:	0e 94 bc 5b 	call	0xb778	; 0xb778 <atol>
    2608:	6b 01       	movw	r12, r22
    260a:	7c 01       	movw	r14, r24

        if (pch == 0) {
    260c:	b5 01       	movw	r22, r10
    260e:	ce 01       	movw	r24, r28
  unsigned int getDTerm() { return readRegister("06"); }
    2610:	01 96       	adiw	r24, 0x01	; 1
    2612:	0e 94 28 53 	call	0xa650	; 0xa650 <_ZN6StringC1EPKc>
          Ethernet1.getCmdClient().println(MCtrl.getDTerm());
        } else {
          long d = atol(pch);
    2616:	ce 01       	movw	r24, r28
    2618:	01 96       	adiw	r24, 0x01	; 1
    261a:	0e 94 b8 2f 	call	0x5f70	; 0x5f70 <_Z13isValidNumber6String>
          if (!isValidNumber(pch) || d < 0 || d > 65535) {  // must be positive int
    261e:	21 e0       	ldi	r18, 0x01	; 1
    2620:	88 23       	and	r24, r24
    2622:	49 f0       	breq	.+18     	; 0x2636 <__stack+0x437>
    2624:	f7 fc       	sbrc	r15, 7
    2626:	07 c0       	rjmp	.+14     	; 0x2636 <__stack+0x437>
    2628:	c1 14       	cp	r12, r1
    262a:	d1 04       	cpc	r13, r1
    262c:	e1 e0       	ldi	r30, 0x01	; 1
    262e:	ee 06       	cpc	r14, r30
    2630:	f1 04       	cpc	r15, r1
    2632:	0c f4       	brge	.+2      	; 0x2636 <__stack+0x437>
    2634:	20 e0       	ldi	r18, 0x00	; 0
    2636:	ce 01       	movw	r24, r28
    2638:	01 96       	adiw	r24, 0x01	; 1
    263a:	a9 96       	adiw	r28, 0x29	; 41
    263c:	2f af       	std	Y+63, r18	; 0x3f
    263e:	a9 97       	sbiw	r28, 0x29	; 41
    2640:	0e 94 c0 52 	call	0xa580	; 0xa580 <_ZN6StringD1Ev>
    2644:	a9 96       	adiw	r28, 0x29	; 41
    2646:	2f ad       	ldd	r18, Y+63	; 0x3f
    2648:	a9 97       	sbiw	r28, 0x29	; 41
    264a:	22 23       	and	r18, r18
    264c:	71 f0       	breq	.+28     	; 0x266a <__stack+0x46b>
    264e:	69 e8       	ldi	r22, 0x89	; 137
    2650:	77 e0       	ldi	r23, 0x07	; 7
    2652:	8a ed       	ldi	r24, 0xDA	; 218
    2654:	97 e0       	ldi	r25, 0x07	; 7
    2656:	0e 94 43 4f 	call	0x9e86	; 0x9e86 <_ZN5Print5printEPK19__FlashStringHelper>
    265a:	b8 01       	movw	r22, r16
    265c:	8a ed       	ldi	r24, 0xDA	; 218
    265e:	97 e0       	ldi	r25, 0x07	; 7
            Ethernet1.getCmdClient().print(F("Bad command: ")); Ethernet1.getCmdClient().print(cmdBuf);
    2660:	0e 94 76 4f 	call	0x9eec	; 0x9eec <_ZN5Print5printEPKc>
    2664:	6e e5       	ldi	r22, 0x5E	; 94
    2666:	77 e0       	ldi	r23, 0x07	; 7
    2668:	13 c7       	rjmp	.+3622   	; 0x3490 <__stack+0x1291>
    266a:	b6 01       	movw	r22, r12
    266c:	8e e6       	ldi	r24, 0x6E	; 110
    266e:	97 e0       	ldi	r25, 0x07	; 7
    2670:	0e 94 92 21 	call	0x4324	; 0x4324 <_ZN8MM3Class8setDTermEj>
    2674:	6e e4       	ldi	r22, 0x4E	; 78
            Ethernet1.getCmdClient().println(F("  Must be an integer from 0 through 65535."));
    2676:	77 e0       	ldi	r23, 0x07	; 7
    2678:	2b c2       	rjmp	.+1110   	; 0x2ad0 <__stack+0x8d1>
    267a:	67 e0       	ldi	r22, 0x07	; 7
          } else {
            MCtrl.setDTerm(d);
    267c:	73 e0       	ldi	r23, 0x03	; 3
    267e:	c7 01       	movw	r24, r14
    2680:	0e 94 3e 5c 	call	0xb87c	; 0xb87c <strcmp>
    2684:	89 2b       	or	r24, r25
            Ethernet1.getCmdClient().print(F("D term set to: "));  Ethernet1.getCmdClient().println(d);
    2686:	09 f0       	breq	.+2      	; 0x268a <__stack+0x48b>
    2688:	44 c0       	rjmp	.+136    	; 0x2712 <__stack+0x513>
    268a:	6c e0       	ldi	r22, 0x0C	; 12
          }        
        }
      } else {
        
      if ( strcmp(pch, "pidscalar") == 0) {
    268c:	72 e0       	ldi	r23, 0x02	; 2
    268e:	80 e0       	ldi	r24, 0x00	; 0
    2690:	90 e0       	ldi	r25, 0x00	; 0
    2692:	0e 94 1a 5c 	call	0xb834	; 0xb834 <strtok>
    2696:	6c 01       	movw	r12, r24
    2698:	00 97       	sbiw	r24, 0x00	; 0
    269a:	19 f4       	brne	.+6      	; 0x26a2 <__stack+0x4a3>
        pch = strtok(NULL, " \r\n");  // get the next token
    269c:	61 e1       	ldi	r22, 0x11	; 17
    269e:	73 e0       	ldi	r23, 0x03	; 3
    26a0:	4d cf       	rjmp	.-358    	; 0x253c <__stack+0x33d>
    26a2:	0e 94 9f 5b 	call	0xb73e	; 0xb73e <atoi>
    26a6:	7c 01       	movw	r14, r24
    26a8:	b6 01       	movw	r22, r12

        if (pch == 0) {
    26aa:	ce 01       	movw	r24, r28
    26ac:	01 96       	adiw	r24, 0x01	; 1
  unsigned int getPIDScalar() { return readRegister("08"); }
    26ae:	0e 94 28 53 	call	0xa650	; 0xa650 <_ZN6StringC1EPKc>
    26b2:	ce 01       	movw	r24, r28
          Ethernet1.getCmdClient().println(MCtrl.getPIDScalar());
        } else {
          int p = atoi(pch);
    26b4:	01 96       	adiw	r24, 0x01	; 1
    26b6:	0e 94 b8 2f 	call	0x5f70	; 0x5f70 <_Z13isValidNumber6String>
          if (!isValidNumber(pch) || p < 0 || p > 32) {  // must be positive int
    26ba:	21 e0       	ldi	r18, 0x01	; 1
    26bc:	88 23       	and	r24, r24
    26be:	39 f0       	breq	.+14     	; 0x26ce <__stack+0x4cf>
    26c0:	f7 fc       	sbrc	r15, 7
    26c2:	05 c0       	rjmp	.+10     	; 0x26ce <__stack+0x4cf>
    26c4:	f1 e2       	ldi	r31, 0x21	; 33
    26c6:	ef 16       	cp	r14, r31
    26c8:	f1 04       	cpc	r15, r1
    26ca:	0c f4       	brge	.+2      	; 0x26ce <__stack+0x4cf>
    26cc:	20 e0       	ldi	r18, 0x00	; 0
    26ce:	ce 01       	movw	r24, r28
    26d0:	01 96       	adiw	r24, 0x01	; 1
    26d2:	a9 96       	adiw	r28, 0x29	; 41
    26d4:	2f af       	std	Y+63, r18	; 0x3f
    26d6:	a9 97       	sbiw	r28, 0x29	; 41
    26d8:	0e 94 c0 52 	call	0xa580	; 0xa580 <_ZN6StringD1Ev>
    26dc:	a9 96       	adiw	r28, 0x29	; 41
    26de:	2f ad       	ldd	r18, Y+63	; 0x3f
    26e0:	a9 97       	sbiw	r28, 0x29	; 41
    26e2:	22 23       	and	r18, r18
    26e4:	71 f0       	breq	.+28     	; 0x2702 <__stack+0x503>
    26e6:	60 e4       	ldi	r22, 0x40	; 64
    26e8:	77 e0       	ldi	r23, 0x07	; 7
    26ea:	8a ed       	ldi	r24, 0xDA	; 218
    26ec:	97 e0       	ldi	r25, 0x07	; 7
    26ee:	0e 94 43 4f 	call	0x9e86	; 0x9e86 <_ZN5Print5printEPK19__FlashStringHelper>
    26f2:	b8 01       	movw	r22, r16
    26f4:	8a ed       	ldi	r24, 0xDA	; 218
    26f6:	97 e0       	ldi	r25, 0x07	; 7
            Ethernet1.getCmdClient().print(F("Bad command: ")); Ethernet1.getCmdClient().print(cmdBuf);
    26f8:	0e 94 76 4f 	call	0x9eec	; 0x9eec <_ZN5Print5printEPKc>
    26fc:	68 e1       	ldi	r22, 0x18	; 24
    26fe:	77 e0       	ldi	r23, 0x07	; 7
    2700:	c7 c6       	rjmp	.+3470   	; 0x3490 <__stack+0x1291>
    2702:	b7 01       	movw	r22, r14
    2704:	8e e6       	ldi	r24, 0x6E	; 110
    2706:	97 e0       	ldi	r25, 0x07	; 7
    2708:	0e 94 d1 21 	call	0x43a2	; 0x43a2 <_ZN8MM3Class12setPIDScalarEj>
    270c:	65 e0       	ldi	r22, 0x05	; 5
            Ethernet1.getCmdClient().println(F("  Must be an integer from 0 through 32."));
    270e:	77 e0       	ldi	r23, 0x07	; 7
    2710:	4c c0       	rjmp	.+152    	; 0x27aa <__stack+0x5ab>
    2712:	64 e1       	ldi	r22, 0x14	; 20
          } else {
            MCtrl.setPIDScalar(p);
    2714:	73 e0       	ldi	r23, 0x03	; 3
    2716:	c7 01       	movw	r24, r14
    2718:	0e 94 3e 5c 	call	0xb87c	; 0xb87c <strcmp>
    271c:	89 2b       	or	r24, r25
            Ethernet1.getCmdClient().print(F("PIDSCALAR set to: "));  Ethernet1.getCmdClient().println(p);
    271e:	09 f0       	breq	.+2      	; 0x2722 <__stack+0x523>
    2720:	50 c0       	rjmp	.+160    	; 0x27c2 <__stack+0x5c3>
    2722:	6c e0       	ldi	r22, 0x0C	; 12
          }        
        }
      } else {
        
      if ( strcmp(pch, "vff") == 0) {
    2724:	72 e0       	ldi	r23, 0x02	; 2
    2726:	80 e0       	ldi	r24, 0x00	; 0
    2728:	90 e0       	ldi	r25, 0x00	; 0
    272a:	0e 94 1a 5c 	call	0xb834	; 0xb834 <strtok>
    272e:	6c 01       	movw	r12, r24
    2730:	00 97       	sbiw	r24, 0x00	; 0
    2732:	19 f4       	brne	.+6      	; 0x273a <__stack+0x53b>
        pch = strtok(NULL, " \r\n");  // get the next token
    2734:	68 e1       	ldi	r22, 0x18	; 24
    2736:	73 e0       	ldi	r23, 0x03	; 3
    2738:	01 cf       	rjmp	.-510    	; 0x253c <__stack+0x33d>
    273a:	0e 94 9f 5b 	call	0xb73e	; 0xb73e <atoi>
    273e:	7c 01       	movw	r14, r24
    2740:	b6 01       	movw	r22, r12

        if (pch == 0) {
    2742:	ce 01       	movw	r24, r28
    2744:	01 96       	adiw	r24, 0x01	; 1
  unsigned int getVFF() { return readRegister("02"); }
    2746:	0e 94 28 53 	call	0xa650	; 0xa650 <_ZN6StringC1EPKc>
    274a:	ce 01       	movw	r24, r28
          Ethernet1.getCmdClient().println(MCtrl.getVFF());
        } else {
          int p = atoi(pch);
    274c:	01 96       	adiw	r24, 0x01	; 1
    274e:	0e 94 b8 2f 	call	0x5f70	; 0x5f70 <_Z13isValidNumber6String>
          if (!isValidNumber(pch) || p < 0 || p > 255) {  // must be positive int
    2752:	21 e0       	ldi	r18, 0x01	; 1
    2754:	88 23       	and	r24, r24
    2756:	41 f0       	breq	.+16     	; 0x2768 <__stack+0x569>
    2758:	f7 fc       	sbrc	r15, 7
    275a:	06 c0       	rjmp	.+12     	; 0x2768 <__stack+0x569>
    275c:	8f ef       	ldi	r24, 0xFF	; 255
    275e:	e8 16       	cp	r14, r24
    2760:	f1 04       	cpc	r15, r1
    2762:	09 f0       	breq	.+2      	; 0x2766 <__stack+0x567>
    2764:	0c f4       	brge	.+2      	; 0x2768 <__stack+0x569>
    2766:	20 e0       	ldi	r18, 0x00	; 0
    2768:	ce 01       	movw	r24, r28
    276a:	01 96       	adiw	r24, 0x01	; 1
    276c:	a9 96       	adiw	r28, 0x29	; 41
    276e:	2f af       	std	Y+63, r18	; 0x3f
    2770:	a9 97       	sbiw	r28, 0x29	; 41
    2772:	0e 94 c0 52 	call	0xa580	; 0xa580 <_ZN6StringD1Ev>
    2776:	a9 96       	adiw	r28, 0x29	; 41
    2778:	2f ad       	ldd	r18, Y+63	; 0x3f
    277a:	a9 97       	sbiw	r28, 0x29	; 41
    277c:	22 23       	and	r18, r18
    277e:	71 f0       	breq	.+28     	; 0x279c <__stack+0x59d>
    2780:	67 ef       	ldi	r22, 0xF7	; 247
    2782:	76 e0       	ldi	r23, 0x06	; 6
    2784:	8a ed       	ldi	r24, 0xDA	; 218
    2786:	97 e0       	ldi	r25, 0x07	; 7
    2788:	0e 94 43 4f 	call	0x9e86	; 0x9e86 <_ZN5Print5printEPK19__FlashStringHelper>
    278c:	b8 01       	movw	r22, r16
    278e:	8a ed       	ldi	r24, 0xDA	; 218
    2790:	97 e0       	ldi	r25, 0x07	; 7
            Ethernet1.getCmdClient().print(F("Bad command: ")); Ethernet1.getCmdClient().print(cmdBuf);
    2792:	0e 94 76 4f 	call	0x9eec	; 0x9eec <_ZN5Print5printEPKc>
    2796:	6e ec       	ldi	r22, 0xCE	; 206
    2798:	76 e0       	ldi	r23, 0x06	; 6
    279a:	7a c6       	rjmp	.+3316   	; 0x3490 <__stack+0x1291>
    279c:	b7 01       	movw	r22, r14
    279e:	8e e6       	ldi	r24, 0x6E	; 110
    27a0:	97 e0       	ldi	r25, 0x07	; 7
    27a2:	0e 94 10 22 	call	0x4420	; 0x4420 <_ZN8MM3Class6setVFFEj>
    27a6:	6f ea       	ldi	r22, 0xAF	; 175
            Ethernet1.getCmdClient().println(F("  Must be an integer from 0 through 255."));
    27a8:	76 e0       	ldi	r23, 0x06	; 6
    27aa:	8a ed       	ldi	r24, 0xDA	; 218
    27ac:	97 e0       	ldi	r25, 0x07	; 7
          } else {
            MCtrl.setVFF(p);
    27ae:	0e 94 43 4f 	call	0x9e86	; 0x9e86 <_ZN5Print5printEPK19__FlashStringHelper>
    27b2:	4a e0       	ldi	r20, 0x0A	; 10
    27b4:	50 e0       	ldi	r21, 0x00	; 0
    27b6:	b7 01       	movw	r22, r14
            Ethernet1.getCmdClient().print(F("Velocity feed forward set to: "));  Ethernet1.getCmdClient().println(p);
    27b8:	8a ed       	ldi	r24, 0xDA	; 218
    27ba:	97 e0       	ldi	r25, 0x07	; 7
    27bc:	0e 94 7f 50 	call	0xa0fe	; 0xa0fe <_ZN5Print7printlnEii>
    27c0:	ab c3       	rjmp	.+1878   	; 0x2f18 <__stack+0xd19>
    27c2:	6b e1       	ldi	r22, 0x1B	; 27
    27c4:	73 e0       	ldi	r23, 0x03	; 3
    27c6:	c7 01       	movw	r24, r14
    27c8:	0e 94 3e 5c 	call	0xb87c	; 0xb87c <strcmp>
    27cc:	89 2b       	or	r24, r25
    27ce:	39 f4       	brne	.+14     	; 0x27de <__stack+0x5df>
    27d0:	8e e6       	ldi	r24, 0x6E	; 110
    27d2:	97 e0       	ldi	r25, 0x07	; 7
          }        
        }
      } else {
        
      if ( strcmp(pch, "store_tuning") == 0) {
    27d4:	0e 94 4f 22 	call	0x449e	; 0x449e <_ZN8MM3Class11storeTuningEv>
    27d8:	67 e8       	ldi	r22, 0x87	; 135
    27da:	76 e0       	ldi	r23, 0x06	; 6
    27dc:	59 c6       	rjmp	.+3250   	; 0x3490 <__stack+0x1291>
    27de:	68 e2       	ldi	r22, 0x28	; 40
    27e0:	73 e0       	ldi	r23, 0x03	; 3
        MCtrl.storeTuning();
    27e2:	c7 01       	movw	r24, r14
    27e4:	0e 94 3e 5c 	call	0xb87c	; 0xb87c <strcmp>
    27e8:	89 2b       	or	r24, r25
        Ethernet1.getCmdClient().println(F("PID tuning parameters stored to EEPROM."));
    27ea:	09 f0       	breq	.+2      	; 0x27ee <__stack+0x5ef>
    27ec:	5e c0       	rjmp	.+188    	; 0x28aa <__stack+0x6ab>
    27ee:	6c e0       	ldi	r22, 0x0C	; 12
      } else {
        
      if ( strcmp(pch, "port_base") == 0) {
    27f0:	72 e0       	ldi	r23, 0x02	; 2
    27f2:	80 e0       	ldi	r24, 0x00	; 0
    27f4:	90 e0       	ldi	r25, 0x00	; 0
    27f6:	0e 94 1a 5c 	call	0xb834	; 0xb834 <strtok>
    27fa:	5c 01       	movw	r10, r24
    27fc:	00 97       	sbiw	r24, 0x00	; 0
    27fe:	69 f4       	brne	.+26     	; 0x281a <__stack+0x61b>
        pch = strtok(NULL, " \r\n");  // get the next token
    2800:	64 e7       	ldi	r22, 0x74	; 116
    2802:	70 e0       	ldi	r23, 0x00	; 0
    2804:	87 ef       	ldi	r24, 0xF7	; 247
    2806:	97 e0       	ldi	r25, 0x07	; 7
    2808:	6d d6       	rcall	.+3290   	; 0x34e4 <_ZN17EepromAccessClass13readEEPromIntEi>
    280a:	4a e0       	ldi	r20, 0x0A	; 10
    280c:	50 e0       	ldi	r21, 0x00	; 0

        if (pch == 0) {
    280e:	bc 01       	movw	r22, r24
    2810:	8a ed       	ldi	r24, 0xDA	; 218
          Ethernet1.getCmdClient().println(EepromAccess.readEEPromInt(EepromAccess.PORT_BASE));
    2812:	97 e0       	ldi	r25, 0x07	; 7
    2814:	0e 94 cc 50 	call	0xa198	; 0xa198 <_ZN5Print7printlnEji>
    2818:	7f c3       	rjmp	.+1790   	; 0x2f18 <__stack+0xd19>
    281a:	0e 94 bc 5b 	call	0xb778	; 0xb778 <atol>
    281e:	6b 01       	movw	r12, r22
    2820:	7c 01       	movw	r14, r24
    2822:	b5 01       	movw	r22, r10
    2824:	ce 01       	movw	r24, r28
    2826:	01 96       	adiw	r24, 0x01	; 1
    2828:	0e 94 28 53 	call	0xa650	; 0xa650 <_ZN6StringC1EPKc>
    282c:	ce 01       	movw	r24, r28
        } else {
          long p = atol(pch);
    282e:	01 96       	adiw	r24, 0x01	; 1
    2830:	0e 94 b8 2f 	call	0x5f70	; 0x5f70 <_Z13isValidNumber6String>
    2834:	21 e0       	ldi	r18, 0x01	; 1
          if (!isValidNumber(pch) || p < 0 || p > 65533) {  // must be positive int
    2836:	88 23       	and	r24, r24
    2838:	51 f0       	breq	.+20     	; 0x284e <__stack+0x64f>
    283a:	f7 fc       	sbrc	r15, 7
    283c:	08 c0       	rjmp	.+16     	; 0x284e <__stack+0x64f>
    283e:	9e ef       	ldi	r25, 0xFE	; 254
    2840:	c9 16       	cp	r12, r25
    2842:	9f ef       	ldi	r25, 0xFF	; 255
    2844:	d9 06       	cpc	r13, r25
    2846:	e1 04       	cpc	r14, r1
    2848:	f1 04       	cpc	r15, r1
    284a:	0c f4       	brge	.+2      	; 0x284e <__stack+0x64f>
    284c:	20 e0       	ldi	r18, 0x00	; 0
    284e:	ce 01       	movw	r24, r28
    2850:	01 96       	adiw	r24, 0x01	; 1
    2852:	a9 96       	adiw	r28, 0x29	; 41
    2854:	2f af       	std	Y+63, r18	; 0x3f
    2856:	a9 97       	sbiw	r28, 0x29	; 41
    2858:	0e 94 c0 52 	call	0xa580	; 0xa580 <_ZN6StringD1Ev>
    285c:	a9 96       	adiw	r28, 0x29	; 41
    285e:	2f ad       	ldd	r18, Y+63	; 0x3f
    2860:	a9 97       	sbiw	r28, 0x29	; 41
    2862:	22 23       	and	r18, r18
    2864:	71 f0       	breq	.+28     	; 0x2882 <__stack+0x683>
    2866:	69 e7       	ldi	r22, 0x79	; 121
    2868:	76 e0       	ldi	r23, 0x06	; 6
    286a:	8a ed       	ldi	r24, 0xDA	; 218
    286c:	97 e0       	ldi	r25, 0x07	; 7
    286e:	0e 94 43 4f 	call	0x9e86	; 0x9e86 <_ZN5Print5printEPK19__FlashStringHelper>
    2872:	b8 01       	movw	r22, r16
    2874:	8a ed       	ldi	r24, 0xDA	; 218
    2876:	97 e0       	ldi	r25, 0x07	; 7
    2878:	0e 94 76 4f 	call	0x9eec	; 0x9eec <_ZN5Print5printEPKc>
            Ethernet1.getCmdClient().print(F("Bad command: ")); Ethernet1.getCmdClient().print(cmdBuf);
    287c:	6e e4       	ldi	r22, 0x4E	; 78
    287e:	76 e0       	ldi	r23, 0x06	; 6
    2880:	07 c6       	rjmp	.+3086   	; 0x3490 <__stack+0x1291>
    2882:	a6 01       	movw	r20, r12
    2884:	64 e7       	ldi	r22, 0x74	; 116
    2886:	70 e0       	ldi	r23, 0x00	; 0
    2888:	87 ef       	ldi	r24, 0xF7	; 247
    288a:	97 e0       	ldi	r25, 0x07	; 7
    288c:	41 d6       	rcall	.+3202   	; 0x3510 <_ZN17EepromAccessClass14writeEEPromIntEii>
    288e:	6b e3       	ldi	r22, 0x3B	; 59
            Ethernet1.getCmdClient().println(F("  Must be an integer from 0 through 65533."));
    2890:	76 e0       	ldi	r23, 0x06	; 6
    2892:	8a ed       	ldi	r24, 0xDA	; 218
    2894:	97 e0       	ldi	r25, 0x07	; 7
          } else {
            EepromAccess.writeEEPromInt(EepromAccess.PORT_BASE, (unsigned int) p);
    2896:	0e 94 43 4f 	call	0x9e86	; 0x9e86 <_ZN5Print5printEPK19__FlashStringHelper>
    289a:	b5 01       	movw	r22, r10
    289c:	8a ed       	ldi	r24, 0xDA	; 218
    289e:	97 e0       	ldi	r25, 0x07	; 7
    28a0:	0e 94 76 4f 	call	0x9eec	; 0x9eec <_ZN5Print5printEPKc>
            Ethernet1.getCmdClient().print(F("Port base set to: ")); Ethernet1.getCmdClient().print(pch);
    28a4:	67 e1       	ldi	r22, 0x17	; 23
    28a6:	76 e0       	ldi	r23, 0x06	; 6
    28a8:	f3 c5       	rjmp	.+3046   	; 0x3490 <__stack+0x1291>
    28aa:	62 e3       	ldi	r22, 0x32	; 50
    28ac:	73 e0       	ldi	r23, 0x03	; 3
    28ae:	c7 01       	movw	r24, r14
    28b0:	0e 94 3e 5c 	call	0xb87c	; 0xb87c <strcmp>
    28b4:	89 2b       	or	r24, r25
    28b6:	49 f4       	brne	.+18     	; 0x28ca <__stack+0x6cb>
    28b8:	62 e0       	ldi	r22, 0x02	; 2
            Ethernet1.getCmdClient().println(F(".  Requires restart to take effect."));
    28ba:	76 e0       	ldi	r23, 0x06	; 6
    28bc:	8a ed       	ldi	r24, 0xDA	; 218
    28be:	97 e0       	ldi	r25, 0x07	; 7
          }        
        }
      } else {
        
      if ( strcmp(pch, "save_state") == 0) {
    28c0:	0e 94 9a 4f 	call	0x9f34	; 0x9f34 <_ZN5Print7printlnEPK19__FlashStringHelper>
    28c4:	0e 94 0a 30 	call	0x6014	; 0x6014 <_Z9saveStatev>
    28c8:	27 c3       	rjmp	.+1614   	; 0x2f18 <__stack+0xd19>
    28ca:	6d e3       	ldi	r22, 0x3D	; 61
    28cc:	73 e0       	ldi	r23, 0x03	; 3
        Ethernet1.getCmdClient().println(F("Saving system state."));
    28ce:	c7 01       	movw	r24, r14
    28d0:	0e 94 3e 5c 	call	0xb87c	; 0xb87c <strcmp>
    28d4:	89 2b       	or	r24, r25
    28d6:	59 f4       	brne	.+22     	; 0x28ee <__stack+0x6ef>
    28d8:	6f ee       	ldi	r22, 0xEF	; 239
        saveState();
    28da:	75 e0       	ldi	r23, 0x05	; 5
    28dc:	8a ed       	ldi	r24, 0xDA	; 218
    28de:	97 e0       	ldi	r25, 0x07	; 7
      } else {

        if ( strcmp(pch, "reboot") == 0) {
    28e0:	0e 94 9a 4f 	call	0x9f34	; 0x9f34 <_ZN5Print7printlnEPK19__FlashStringHelper>
    28e4:	0e 94 0a 30 	call	0x6014	; 0x6014 <_Z9saveStatev>
    28e8:	0e 94 0d 35 	call	0x6a1a	; 0x6a1a <_Z15software_Rebootv>
    28ec:	15 c3       	rjmp	.+1578   	; 0x2f18 <__stack+0xd19>
        Ethernet1.getCmdClient().println(F("System restarting."));
    28ee:	6a e4       	ldi	r22, 0x4A	; 74
    28f0:	73 e0       	ldi	r23, 0x03	; 3
    28f2:	c7 01       	movw	r24, r14
    28f4:	0e 94 3e 5c 	call	0xb87c	; 0xb87c <strcmp>
    28f8:	89 2b       	or	r24, r25
        saveState();
    28fa:	09 f0       	breq	.+2      	; 0x28fe <__stack+0x6ff>
    28fc:	66 c0       	rjmp	.+204    	; 0x29ca <__stack+0x7cb>
        software_Reboot();
    28fe:	6c e0       	ldi	r22, 0x0C	; 12
    2900:	72 e0       	ldi	r23, 0x02	; 2
    2902:	80 e0       	ldi	r24, 0x00	; 0
      } else {
        
      if ( strcmp(pch, "motor_time") == 0) {
    2904:	90 e0       	ldi	r25, 0x00	; 0
    2906:	0e 94 1a 5c 	call	0xb834	; 0xb834 <strtok>
    290a:	5c 01       	movw	r10, r24
    290c:	00 97       	sbiw	r24, 0x00	; 0
    290e:	d9 f4       	brne	.+54     	; 0x2946 <__stack+0x747>
    2910:	60 91 99 07 	lds	r22, 0x0799
        pch = strtok(NULL, " \r\n");  // get the next token
    2914:	70 91 9a 07 	lds	r23, 0x079A
    2918:	80 91 9b 07 	lds	r24, 0x079B
    291c:	90 91 9c 07 	lds	r25, 0x079C
    2920:	0e 94 3f 56 	call	0xac7e	; 0xac7e <__floatunsisf>

        if (pch == 0) {
    2924:	20 e0       	ldi	r18, 0x00	; 0
  void setRPM(float f);

  double getMaxRevolutions() { return m_maxRevolutions; }
  void setMaxRevolutions(double m);

  float getMotorTimeDays() { return float(m_motor_time / (60.0*60.0*24.0)); }
    2926:	30 ec       	ldi	r19, 0xC0	; 192
    2928:	48 ea       	ldi	r20, 0xA8	; 168
    292a:	57 e4       	ldi	r21, 0x47	; 71
    292c:	0e 94 a6 55 	call	0xab4c	; 0xab4c <__divsf3>
    2930:	ab 01       	movw	r20, r22
    2932:	bc 01       	movw	r22, r24
    2934:	23 e0       	ldi	r18, 0x03	; 3
    2936:	30 e0       	ldi	r19, 0x00	; 0
    2938:	8a ed       	ldi	r24, 0xDA	; 218
    293a:	97 e0       	ldi	r25, 0x07	; 7
    293c:	0e 94 c7 51 	call	0xa38e	; 0xa38e <_ZN5Print5printEdi>
    2940:	69 ee       	ldi	r22, 0xE9	; 233
    2942:	75 e0       	ldi	r23, 0x05	; 5
    2944:	a5 c5       	rjmp	.+2890   	; 0x3490 <__stack+0x1291>
    2946:	0e 94 9c 5b 	call	0xb738	; 0xb738 <atof>
          Ethernet1.getCmdClient().print( Motor.getMotorTimeDays(), 3);
    294a:	6b 01       	movw	r12, r22
    294c:	7c 01       	movw	r14, r24
    294e:	b5 01       	movw	r22, r10
    2950:	ce 01       	movw	r24, r28
    2952:	01 96       	adiw	r24, 0x01	; 1
    2954:	0e 94 28 53 	call	0xa650	; 0xa650 <_ZN6StringC1EPKc>
          Ethernet1.getCmdClient().println(F(" Days"));
    2958:	ce 01       	movw	r24, r28
    295a:	01 96       	adiw	r24, 0x01	; 1
        } else {
          float p = atof(pch);  // argument in fractional days
    295c:	0e 94 b8 2f 	call	0x5f70	; 0x5f70 <_Z13isValidNumber6String>
    2960:	88 23       	and	r24, r24
    2962:	61 f0       	breq	.+24     	; 0x297c <__stack+0x77d>
          if (!isValidNumber(pch) || p < 0.0) {  // must be positive
    2964:	20 e0       	ldi	r18, 0x00	; 0
    2966:	30 e0       	ldi	r19, 0x00	; 0
    2968:	a9 01       	movw	r20, r18
    296a:	c7 01       	movw	r24, r14
    296c:	b6 01       	movw	r22, r12
    296e:	0e 94 a2 55 	call	0xab44	; 0xab44 <__cmpsf2>
    2972:	b8 2e       	mov	r11, r24
    2974:	bb 1c       	adc	r11, r11
    2976:	bb 24       	eor	r11, r11
    2978:	bb 1c       	adc	r11, r11
    297a:	02 c0       	rjmp	.+4      	; 0x2980 <__stack+0x781>
    297c:	bb 24       	eor	r11, r11
    297e:	b3 94       	inc	r11
    2980:	ce 01       	movw	r24, r28
    2982:	01 96       	adiw	r24, 0x01	; 1
    2984:	0e 94 c0 52 	call	0xa580	; 0xa580 <_ZN6StringD1Ev>
    2988:	bb 20       	and	r11, r11
    298a:	71 f0       	breq	.+28     	; 0x29a8 <__stack+0x7a9>
    298c:	6b ed       	ldi	r22, 0xDB	; 219
    298e:	75 e0       	ldi	r23, 0x05	; 5
    2990:	8a ed       	ldi	r24, 0xDA	; 218
    2992:	97 e0       	ldi	r25, 0x07	; 7
    2994:	0e 94 43 4f 	call	0x9e86	; 0x9e86 <_ZN5Print5printEPK19__FlashStringHelper>
    2998:	b8 01       	movw	r22, r16
    299a:	8a ed       	ldi	r24, 0xDA	; 218
    299c:	97 e0       	ldi	r25, 0x07	; 7
    299e:	0e 94 76 4f 	call	0x9eec	; 0x9eec <_ZN5Print5printEPKc>
            Ethernet1.getCmdClient().print(F("Bad command: ")); Ethernet1.getCmdClient().print(cmdBuf);
    29a2:	6e eb       	ldi	r22, 0xBE	; 190
    29a4:	75 e0       	ldi	r23, 0x05	; 5
    29a6:	74 c5       	rjmp	.+2792   	; 0x3490 <__stack+0x1291>
    29a8:	b7 01       	movw	r22, r14
    29aa:	a6 01       	movw	r20, r12
    29ac:	85 e8       	ldi	r24, 0x85	; 133
    29ae:	97 e0       	ldi	r25, 0x07	; 7
    29b0:	0e 94 17 29 	call	0x522e	; 0x522e <_ZN10MotorClass16setMotorTimeDaysEf>
    29b4:	6a ea       	ldi	r22, 0xAA	; 170
    29b6:	75 e0       	ldi	r23, 0x05	; 5
            Ethernet1.getCmdClient().println(F("  Must be a positive number."));
    29b8:	8a ed       	ldi	r24, 0xDA	; 218
    29ba:	97 e0       	ldi	r25, 0x07	; 7
    29bc:	0e 94 43 4f 	call	0x9e86	; 0x9e86 <_ZN5Print5printEPK19__FlashStringHelper>
          } else {
            Motor.setMotorTimeDays(p);
    29c0:	23 e0       	ldi	r18, 0x03	; 3
    29c2:	30 e0       	ldi	r19, 0x00	; 0
    29c4:	b7 01       	movw	r22, r14
    29c6:	a6 01       	movw	r20, r12
    29c8:	1d c1       	rjmp	.+570    	; 0x2c04 <__stack+0xa05>
            Ethernet1.getCmdClient().print(F("Motor time set to: ")); Ethernet1.getCmdClient().println(p,3);
    29ca:	64 e4       	ldi	r22, 0x44	; 68
    29cc:	73 e0       	ldi	r23, 0x03	; 3
    29ce:	c7 01       	movw	r24, r14
    29d0:	0e 94 3e 5c 	call	0xb87c	; 0xb87c <strcmp>
    29d4:	89 2b       	or	r24, r25
    29d6:	71 f4       	brne	.+28     	; 0x29f4 <__stack+0x7f5>
    29d8:	66 e7       	ldi	r22, 0x76	; 118
    29da:	75 e0       	ldi	r23, 0x05	; 5
    29dc:	8a ed       	ldi	r24, 0xDA	; 218
    29de:	97 e0       	ldi	r25, 0x07	; 7
          }        
        }
      } else {
        
      if ( strcmp(pch, "reset_motor_time") == 0) {
    29e0:	0e 94 9a 4f 	call	0x9f34	; 0x9f34 <_ZN5Print7printlnEPK19__FlashStringHelper>
    29e4:	40 e0       	ldi	r20, 0x00	; 0
    29e6:	50 e0       	ldi	r21, 0x00	; 0
    29e8:	ba 01       	movw	r22, r20
    29ea:	85 e8       	ldi	r24, 0x85	; 133
    29ec:	97 e0       	ldi	r25, 0x07	; 7
        Ethernet1.getCmdClient().println(F("Resetting total accumulated motor run time to zero."));
    29ee:	0e 94 17 29 	call	0x522e	; 0x522e <_ZN10MotorClass16setMotorTimeDaysEf>
    29f2:	92 c2       	rjmp	.+1316   	; 0x2f18 <__stack+0xd19>
    29f4:	65 e5       	ldi	r22, 0x55	; 85
    29f6:	73 e0       	ldi	r23, 0x03	; 3
    29f8:	c7 01       	movw	r24, r14
        Motor.setMotorTimeDays(0.0);
    29fa:	0e 94 3e 5c 	call	0xb87c	; 0xb87c <strcmp>
    29fe:	89 2b       	or	r24, r25
    2a00:	19 f4       	brne	.+6      	; 0x2a08 <__stack+0x809>
    2a02:	69 e5       	ldi	r22, 0x59	; 89
    2a04:	73 e0       	ldi	r23, 0x03	; 3
    2a06:	84 c2       	rjmp	.+1288   	; 0x2f10 <__stack+0xd11>
    2a08:	6d e5       	ldi	r22, 0x5D	; 93
      } else {

      if ( strcmp(pch, "ver") == 0) {
    2a0a:	73 e0       	ldi	r23, 0x03	; 3
    2a0c:	c7 01       	movw	r24, r14
    2a0e:	0e 94 3e 5c 	call	0xb87c	; 0xb87c <strcmp>
    2a12:	89 2b       	or	r24, r25
    2a14:	31 f4       	brne	.+12     	; 0x2a22 <__stack+0x823>
    2a16:	88 ef       	ldi	r24, 0xF8	; 248
        Ethernet1.getCmdClient().println(SWVERSION);
    2a18:	97 e0       	ldi	r25, 0x07	; 7
    2a1a:	13 d8       	rcall	.-4058   	; 0x1a42 <_ZN19CApplicationMonitor12ClearReportsEv>
    2a1c:	61 e5       	ldi	r22, 0x51	; 81
      } else {
        
      if ( strcmp(pch, "clearreports") == 0) {
    2a1e:	75 e0       	ldi	r23, 0x05	; 5
    2a20:	37 c5       	rjmp	.+2670   	; 0x3490 <__stack+0x1291>
    2a22:	6a e6       	ldi	r22, 0x6A	; 106
    2a24:	73 e0       	ldi	r23, 0x03	; 3
    2a26:	c7 01       	movw	r24, r14
    2a28:	0e 94 3e 5c 	call	0xb87c	; 0xb87c <strcmp>
        ApplicationMonitor.ClearReports();
    2a2c:	89 2b       	or	r24, r25
    2a2e:	09 f0       	breq	.+2      	; 0x2a32 <__stack+0x833>
    2a30:	5c c0       	rjmp	.+184    	; 0x2aea <__stack+0x8eb>
    2a32:	6c e0       	ldi	r22, 0x0C	; 12
        Ethernet1.getCmdClient().println(F("Application Monitor Reports Cleared."));
    2a34:	72 e0       	ldi	r23, 0x02	; 2
    2a36:	80 e0       	ldi	r24, 0x00	; 0
    2a38:	90 e0       	ldi	r25, 0x00	; 0
      } else {        
        
      if ( strcmp(pch, "motor_cpr") == 0) {
    2a3a:	0e 94 1a 5c 	call	0xb834	; 0xb834 <strtok>
    2a3e:	5c 01       	movw	r10, r24
    2a40:	00 97       	sbiw	r24, 0x00	; 0
    2a42:	79 f4       	brne	.+30     	; 0x2a62 <__stack+0x863>
    2a44:	40 91 85 07 	lds	r20, 0x0785
    2a48:	50 91 86 07 	lds	r21, 0x0786
        pch = strtok(NULL, " \r\n");  // get the next token
    2a4c:	60 91 87 07 	lds	r22, 0x0787
    2a50:	70 91 88 07 	lds	r23, 0x0788
    2a54:	2a e0       	ldi	r18, 0x0A	; 10
    2a56:	30 e0       	ldi	r19, 0x00	; 0

        if (pch == 0) {
    2a58:	8a ed       	ldi	r24, 0xDA	; 218
    2a5a:	97 e0       	ldi	r25, 0x07	; 7
          Ethernet1.getCmdClient().println(Motor.getCPR());
    2a5c:	0e 94 e0 50 	call	0xa1c0	; 0xa1c0 <_ZN5Print7printlnEmi>
    2a60:	5b c2       	rjmp	.+1206   	; 0x2f18 <__stack+0xd19>
    2a62:	0e 94 bc 5b 	call	0xb778	; 0xb778 <atol>
    2a66:	6b 01       	movw	r12, r22
    2a68:	7c 01       	movw	r14, r24
    2a6a:	b5 01       	movw	r22, r10
    2a6c:	ce 01       	movw	r24, r28
    2a6e:	01 96       	adiw	r24, 0x01	; 1
    2a70:	0e 94 28 53 	call	0xa650	; 0xa650 <_ZN6StringC1EPKc>
    2a74:	ce 01       	movw	r24, r28
    2a76:	01 96       	adiw	r24, 0x01	; 1
    2a78:	0e 94 b8 2f 	call	0x5f70	; 0x5f70 <_Z13isValidNumber6String>
        } else {
          long p = atol(pch);
    2a7c:	88 23       	and	r24, r24
    2a7e:	51 f0       	breq	.+20     	; 0x2a94 <__stack+0x895>
    2a80:	d7 01       	movw	r26, r14
          if (!isValidNumber(pch) || p < 0) {  // must be positive long
    2a82:	c6 01       	movw	r24, r12
    2a84:	88 27       	eor	r24, r24
    2a86:	b7 fd       	sbrc	r27, 7
    2a88:	83 95       	inc	r24
    2a8a:	99 27       	eor	r25, r25
    2a8c:	aa 27       	eor	r26, r26
    2a8e:	bb 27       	eor	r27, r27
    2a90:	b8 2e       	mov	r11, r24
    2a92:	02 c0       	rjmp	.+4      	; 0x2a98 <__stack+0x899>
    2a94:	bb 24       	eor	r11, r11
    2a96:	b3 94       	inc	r11
    2a98:	ce 01       	movw	r24, r28
    2a9a:	01 96       	adiw	r24, 0x01	; 1
    2a9c:	0e 94 c0 52 	call	0xa580	; 0xa580 <_ZN6StringD1Ev>
    2aa0:	bb 20       	and	r11, r11
    2aa2:	71 f0       	breq	.+28     	; 0x2ac0 <__stack+0x8c1>
    2aa4:	63 e4       	ldi	r22, 0x43	; 67
    2aa6:	75 e0       	ldi	r23, 0x05	; 5
    2aa8:	8a ed       	ldi	r24, 0xDA	; 218
    2aaa:	97 e0       	ldi	r25, 0x07	; 7
    2aac:	0e 94 43 4f 	call	0x9e86	; 0x9e86 <_ZN5Print5printEPK19__FlashStringHelper>
    2ab0:	b8 01       	movw	r22, r16
    2ab2:	8a ed       	ldi	r24, 0xDA	; 218
    2ab4:	97 e0       	ldi	r25, 0x07	; 7
    2ab6:	0e 94 76 4f 	call	0x9eec	; 0x9eec <_ZN5Print5printEPKc>
    2aba:	65 e2       	ldi	r22, 0x25	; 37
            Ethernet1.getCmdClient().print(F("Bad command: ")); Ethernet1.getCmdClient().print(cmdBuf);
    2abc:	75 e0       	ldi	r23, 0x05	; 5
    2abe:	e8 c4       	rjmp	.+2512   	; 0x3490 <__stack+0x1291>
    2ac0:	b7 01       	movw	r22, r14
    2ac2:	a6 01       	movw	r20, r12
    2ac4:	85 e8       	ldi	r24, 0x85	; 133
    2ac6:	97 e0       	ldi	r25, 0x07	; 7
    2ac8:	0e 94 64 29 	call	0x52c8	; 0x52c8 <_ZN10MotorClass6setCPREm>
    2acc:	60 e0       	ldi	r22, 0x00	; 0
    2ace:	75 e0       	ldi	r23, 0x05	; 5
    2ad0:	8a ed       	ldi	r24, 0xDA	; 218
            Ethernet1.getCmdClient().println(F("  Must be a positive integer."));
    2ad2:	97 e0       	ldi	r25, 0x07	; 7
    2ad4:	0e 94 43 4f 	call	0x9e86	; 0x9e86 <_ZN5Print5printEPK19__FlashStringHelper>
          } else {
            Motor.setCPR(p);
    2ad8:	2a e0       	ldi	r18, 0x0A	; 10
    2ada:	30 e0       	ldi	r19, 0x00	; 0
    2adc:	b7 01       	movw	r22, r14
    2ade:	a6 01       	movw	r20, r12
    2ae0:	8a ed       	ldi	r24, 0xDA	; 218
    2ae2:	97 e0       	ldi	r25, 0x07	; 7
            Ethernet1.getCmdClient().print(F("Motor counts per revolution set to: ")); Ethernet1.getCmdClient().println(p);
    2ae4:	0e 94 95 50 	call	0xa12a	; 0xa12a <_ZN5Print7printlnEli>
    2ae8:	17 c2       	rjmp	.+1070   	; 0x2f18 <__stack+0xd19>
    2aea:	64 e7       	ldi	r22, 0x74	; 116
    2aec:	73 e0       	ldi	r23, 0x03	; 3
    2aee:	c7 01       	movw	r24, r14
    2af0:	0e 94 3e 5c 	call	0xb87c	; 0xb87c <strcmp>
    2af4:	89 2b       	or	r24, r25
    2af6:	09 f0       	breq	.+2      	; 0x2afa <__stack+0x8fb>
    2af8:	60 c0       	rjmp	.+192    	; 0x2bba <__stack+0x9bb>
    2afa:	6c e0       	ldi	r22, 0x0C	; 12
    2afc:	72 e0       	ldi	r23, 0x02	; 2
    2afe:	80 e0       	ldi	r24, 0x00	; 0
    2b00:	90 e0       	ldi	r25, 0x00	; 0
          }        
        }
      } else {

      if ( strcmp(pch, "motor_rpm") == 0) {
    2b02:	0e 94 1a 5c 	call	0xb834	; 0xb834 <strtok>
    2b06:	5c 01       	movw	r10, r24
    2b08:	00 97       	sbiw	r24, 0x00	; 0
    2b0a:	49 f4       	brne	.+18     	; 0x2b1e <__stack+0x91f>
    2b0c:	40 91 89 07 	lds	r20, 0x0789
    2b10:	50 91 8a 07 	lds	r21, 0x078A
        pch = strtok(NULL, " \r\n");  // get the next token
    2b14:	60 91 8b 07 	lds	r22, 0x078B
    2b18:	70 91 8c 07 	lds	r23, 0x078C
    2b1c:	71 c0       	rjmp	.+226    	; 0x2c00 <__stack+0xa01>
    2b1e:	0e 94 9c 5b 	call	0xb738	; 0xb738 <atof>

        if (pch == 0) {
    2b22:	6b 01       	movw	r12, r22
          Ethernet1.getCmdClient().println(Motor.getRPM());
    2b24:	7c 01       	movw	r14, r24
    2b26:	b5 01       	movw	r22, r10
    2b28:	ce 01       	movw	r24, r28
    2b2a:	01 96       	adiw	r24, 0x01	; 1
    2b2c:	0e 94 28 53 	call	0xa650	; 0xa650 <_ZN6StringC1EPKc>
    2b30:	ce 01       	movw	r24, r28
    2b32:	01 96       	adiw	r24, 0x01	; 1
    2b34:	0e 94 b8 2f 	call	0x5f70	; 0x5f70 <_Z13isValidNumber6String>
        } else {
          float al = atof(pch);
    2b38:	bb 24       	eor	r11, r11
    2b3a:	b3 94       	inc	r11
    2b3c:	88 23       	and	r24, r24
          if (!isValidNumber(pch) || al <= 0) {  // must be greater than zero
    2b3e:	51 f0       	breq	.+20     	; 0x2b54 <__stack+0x955>
    2b40:	20 e0       	ldi	r18, 0x00	; 0
    2b42:	30 e0       	ldi	r19, 0x00	; 0
    2b44:	a9 01       	movw	r20, r18
    2b46:	c7 01       	movw	r24, r14
    2b48:	b6 01       	movw	r22, r12
    2b4a:	0e 94 a2 55 	call	0xab44	; 0xab44 <__cmpsf2>
    2b4e:	18 16       	cp	r1, r24
    2b50:	0c f4       	brge	.+2      	; 0x2b54 <__stack+0x955>
    2b52:	b1 2c       	mov	r11, r1
    2b54:	ce 01       	movw	r24, r28
    2b56:	01 96       	adiw	r24, 0x01	; 1
    2b58:	0e 94 c0 52 	call	0xa580	; 0xa580 <_ZN6StringD1Ev>
    2b5c:	bb 20       	and	r11, r11
    2b5e:	71 f0       	breq	.+28     	; 0x2b7c <__stack+0x97d>
    2b60:	62 ef       	ldi	r22, 0xF2	; 242
    2b62:	74 e0       	ldi	r23, 0x04	; 4
    2b64:	8a ed       	ldi	r24, 0xDA	; 218
    2b66:	97 e0       	ldi	r25, 0x07	; 7
    2b68:	0e 94 43 4f 	call	0x9e86	; 0x9e86 <_ZN5Print5printEPK19__FlashStringHelper>
    2b6c:	b8 01       	movw	r22, r16
    2b6e:	8a ed       	ldi	r24, 0xDA	; 218
    2b70:	97 e0       	ldi	r25, 0x07	; 7
    2b72:	0e 94 76 4f 	call	0x9eec	; 0x9eec <_ZN5Print5printEPKc>
    2b76:	6c ec       	ldi	r22, 0xCC	; 204
            Ethernet1.getCmdClient().print(F("Bad command: ")); Ethernet1.getCmdClient().print(cmdBuf);
    2b78:	74 e0       	ldi	r23, 0x04	; 4
    2b7a:	8a c4       	rjmp	.+2324   	; 0x3490 <__stack+0x1291>
    2b7c:	b7 01       	movw	r22, r14
    2b7e:	a6 01       	movw	r20, r12
    2b80:	85 e8       	ldi	r24, 0x85	; 133
    2b82:	97 e0       	ldi	r25, 0x07	; 7
    2b84:	0e 94 71 29 	call	0x52e2	; 0x52e2 <_ZN10MotorClass6setRPMEf>
    2b88:	6a eb       	ldi	r22, 0xBA	; 186
    2b8a:	74 e0       	ldi	r23, 0x04	; 4
    2b8c:	8a ed       	ldi	r24, 0xDA	; 218
            Ethernet1.getCmdClient().println(F("  Must be a number greater than zero."));
    2b8e:	97 e0       	ldi	r25, 0x07	; 7
    2b90:	0e 94 43 4f 	call	0x9e86	; 0x9e86 <_ZN5Print5printEPK19__FlashStringHelper>
          } else {
            Motor.setRPM(al);
    2b94:	40 91 89 07 	lds	r20, 0x0789
    2b98:	50 91 8a 07 	lds	r21, 0x078A
    2b9c:	60 91 8b 07 	lds	r22, 0x078B
            Ethernet1.getCmdClient().print(F("Motor RPM set to ")); Ethernet1.getCmdClient().println(Motor.getRPM());
    2ba0:	70 91 8c 07 	lds	r23, 0x078C
    2ba4:	22 e0       	ldi	r18, 0x02	; 2
    2ba6:	30 e0       	ldi	r19, 0x00	; 0
    2ba8:	8a ed       	ldi	r24, 0xDA	; 218
    2baa:	97 e0       	ldi	r25, 0x07	; 7
    2bac:	0e 94 c8 51 	call	0xa390	; 0xa390 <_ZN5Print7printlnEdi>
    2bb0:	83 eb       	ldi	r24, 0xB3	; 179
    2bb2:	96 e0       	ldi	r25, 0x06	; 6
    2bb4:	0e 94 fc 29 	call	0x53f8	; 0x53f8 <_ZN21PositionFeedbackClass19setFeedbackMaxSpeedEv>
    2bb8:	af c1       	rjmp	.+862    	; 0x2f18 <__stack+0xd19>
    2bba:	6e e7       	ldi	r22, 0x7E	; 126
    2bbc:	73 e0       	ldi	r23, 0x03	; 3
    2bbe:	c7 01       	movw	r24, r14
    2bc0:	0e 94 3e 5c 	call	0xb87c	; 0xb87c <strcmp>
    2bc4:	89 2b       	or	r24, r25
    2bc6:	09 f0       	breq	.+2      	; 0x2bca <__stack+0x9cb>
            posFB.setFeedbackMaxSpeed();
    2bc8:	82 c0       	rjmp	.+260    	; 0x2cce <__stack+0xacf>
    2bca:	6c e0       	ldi	r22, 0x0C	; 12
    2bcc:	72 e0       	ldi	r23, 0x02	; 2
    2bce:	80 e0       	ldi	r24, 0x00	; 0
    2bd0:	90 e0       	ldi	r25, 0x00	; 0
          }
        }
      } else {

      if ( strcmp(pch, "fb_period") == 0) {
    2bd2:	0e 94 1a 5c 	call	0xb834	; 0xb834 <strtok>
    2bd6:	5c 01       	movw	r10, r24
    2bd8:	00 97       	sbiw	r24, 0x00	; 0
    2bda:	c9 f4       	brne	.+50     	; 0x2c0e <__stack+0xa0f>
    2bdc:	60 91 b7 06 	lds	r22, 0x06B7
    2be0:	70 91 b8 06 	lds	r23, 0x06B8
        pch = strtok(NULL, " \r\n");  // get the next token
    2be4:	80 91 b9 06 	lds	r24, 0x06B9
    2be8:	90 91 ba 06 	lds	r25, 0x06BA
    2bec:	0e 94 41 56 	call	0xac82	; 0xac82 <__floatsisf>

        if (pch == 0) {
    2bf0:	20 e0       	ldi	r18, 0x00	; 0
    2bf2:	30 e0       	ldi	r19, 0x00	; 0
  char posBuf[POS_BUF_LEN];

public:
  PositionFeedbackClass();  // constructor

  float getFeedbackPeriod() { return float(m_fb_period) / 1000.0; }
    2bf4:	4a e7       	ldi	r20, 0x7A	; 122
    2bf6:	54 e4       	ldi	r21, 0x44	; 68
    2bf8:	0e 94 a6 55 	call	0xab4c	; 0xab4c <__divsf3>
    2bfc:	ab 01       	movw	r20, r22
    2bfe:	bc 01       	movw	r22, r24
    2c00:	22 e0       	ldi	r18, 0x02	; 2
    2c02:	30 e0       	ldi	r19, 0x00	; 0
    2c04:	8a ed       	ldi	r24, 0xDA	; 218
    2c06:	97 e0       	ldi	r25, 0x07	; 7
    2c08:	0e 94 c8 51 	call	0xa390	; 0xa390 <_ZN5Print7printlnEdi>
    2c0c:	85 c1       	rjmp	.+778    	; 0x2f18 <__stack+0xd19>
    2c0e:	0e 94 9c 5b 	call	0xb738	; 0xb738 <atof>
    2c12:	6b 01       	movw	r12, r22
    2c14:	7c 01       	movw	r14, r24
    2c16:	b5 01       	movw	r22, r10
          Ethernet1.getCmdClient().println( posFB.getFeedbackPeriod() );
    2c18:	ce 01       	movw	r24, r28
    2c1a:	01 96       	adiw	r24, 0x01	; 1
    2c1c:	0e 94 28 53 	call	0xa650	; 0xa650 <_ZN6StringC1EPKc>
    2c20:	ce 01       	movw	r24, r28
    2c22:	01 96       	adiw	r24, 0x01	; 1
    2c24:	0e 94 b8 2f 	call	0x5f70	; 0x5f70 <_Z13isValidNumber6String>
        } else {
          float al = atof(pch);
    2c28:	bb 24       	eor	r11, r11
    2c2a:	b3 94       	inc	r11
    2c2c:	88 23       	and	r24, r24
          if (!isValidNumber(pch) || al <= 0) {  // must be greater than zero
    2c2e:	51 f0       	breq	.+20     	; 0x2c44 <__stack+0xa45>
    2c30:	20 e0       	ldi	r18, 0x00	; 0
    2c32:	30 e0       	ldi	r19, 0x00	; 0
    2c34:	a9 01       	movw	r20, r18
    2c36:	c7 01       	movw	r24, r14
    2c38:	b6 01       	movw	r22, r12
    2c3a:	0e 94 a2 55 	call	0xab44	; 0xab44 <__cmpsf2>
    2c3e:	18 16       	cp	r1, r24
    2c40:	0c f4       	brge	.+2      	; 0x2c44 <__stack+0xa45>
    2c42:	b1 2c       	mov	r11, r1
    2c44:	ce 01       	movw	r24, r28
    2c46:	01 96       	adiw	r24, 0x01	; 1
    2c48:	0e 94 c0 52 	call	0xa580	; 0xa580 <_ZN6StringD1Ev>
    2c4c:	bb 20       	and	r11, r11
    2c4e:	71 f0       	breq	.+28     	; 0x2c6c <__stack+0xa6d>
    2c50:	6c ea       	ldi	r22, 0xAC	; 172
    2c52:	74 e0       	ldi	r23, 0x04	; 4
    2c54:	8a ed       	ldi	r24, 0xDA	; 218
    2c56:	97 e0       	ldi	r25, 0x07	; 7
    2c58:	0e 94 43 4f 	call	0x9e86	; 0x9e86 <_ZN5Print5printEPK19__FlashStringHelper>
    2c5c:	b8 01       	movw	r22, r16
    2c5e:	8a ed       	ldi	r24, 0xDA	; 218
    2c60:	97 e0       	ldi	r25, 0x07	; 7
    2c62:	0e 94 76 4f 	call	0x9eec	; 0x9eec <_ZN5Print5printEPKc>
    2c66:	66 e8       	ldi	r22, 0x86	; 134
            Ethernet1.getCmdClient().print(F("Bad command: ")); Ethernet1.getCmdClient().print(cmdBuf);
    2c68:	74 e0       	ldi	r23, 0x04	; 4
    2c6a:	12 c4       	rjmp	.+2084   	; 0x3490 <__stack+0x1291>
    2c6c:	b7 01       	movw	r22, r14
    2c6e:	a6 01       	movw	r20, r12
    2c70:	83 eb       	ldi	r24, 0xB3	; 179
    2c72:	96 e0       	ldi	r25, 0x06	; 6
    2c74:	0e 94 e1 29 	call	0x53c2	; 0x53c2 <_ZN21PositionFeedbackClass17setFeedbackPeriodEf>
    2c78:	6e e6       	ldi	r22, 0x6E	; 110
    2c7a:	74 e0       	ldi	r23, 0x04	; 4
    2c7c:	8a ed       	ldi	r24, 0xDA	; 218
            Ethernet1.getCmdClient().println(F("  Must be a number greater than zero."));
    2c7e:	97 e0       	ldi	r25, 0x07	; 7
    2c80:	0e 94 43 4f 	call	0x9e86	; 0x9e86 <_ZN5Print5printEPK19__FlashStringHelper>
          } else {
            posFB.setFeedbackPeriod(al);
    2c84:	22 e0       	ldi	r18, 0x02	; 2
    2c86:	30 e0       	ldi	r19, 0x00	; 0
    2c88:	b7 01       	movw	r22, r14
    2c8a:	a6 01       	movw	r20, r12
    2c8c:	8a ed       	ldi	r24, 0xDA	; 218
    2c8e:	97 e0       	ldi	r25, 0x07	; 7
            Ethernet1.getCmdClient().print(F("Feedback period set to ")); Ethernet1.getCmdClient().print(al);
    2c90:	0e 94 c7 51 	call	0xa38e	; 0xa38e <_ZN5Print5printEdi>
    2c94:	64 e6       	ldi	r22, 0x64	; 100
    2c96:	74 e0       	ldi	r23, 0x04	; 4
    2c98:	8a ed       	ldi	r24, 0xDA	; 218
    2c9a:	97 e0       	ldi	r25, 0x07	; 7
    2c9c:	0e 94 9a 4f 	call	0x9f34	; 0x9f34 <_ZN5Print7printlnEPK19__FlashStringHelper>
    2ca0:	83 eb       	ldi	r24, 0xB3	; 179
    2ca2:	96 e0       	ldi	r25, 0x06	; 6
    2ca4:	0e 94 fc 29 	call	0x53f8	; 0x53f8 <_ZN21PositionFeedbackClass19setFeedbackMaxSpeedEv>
    2ca8:	62 e5       	ldi	r22, 0x52	; 82
    2caa:	74 e0       	ldi	r23, 0x04	; 4
            Ethernet1.getCmdClient().println(F(" seconds."));
    2cac:	8a ed       	ldi	r24, 0xDA	; 218
    2cae:	97 e0       	ldi	r25, 0x07	; 7
    2cb0:	0e 94 43 4f 	call	0x9e86	; 0x9e86 <_ZN5Print5printEPK19__FlashStringHelper>
    2cb4:	60 91 b3 06 	lds	r22, 0x06B3
            posFB.setFeedbackMaxSpeed();
    2cb8:	70 91 b4 06 	lds	r23, 0x06B4
    2cbc:	4a e0       	ldi	r20, 0x0A	; 10
    2cbe:	50 e0       	ldi	r21, 0x00	; 0
            Ethernet1.getCmdClient().print(F("Max Speed set to ")); Ethernet1.getCmdClient().print(posFB.getFeedbackMaxSpeed());
    2cc0:	8a ed       	ldi	r24, 0xDA	; 218
    2cc2:	97 e0       	ldi	r25, 0x07	; 7
    2cc4:	0e 94 78 50 	call	0xa0f0	; 0xa0f0 <_ZN5Print5printEii>
    2cc8:	6f e2       	ldi	r22, 0x2F	; 47
    2cca:	74 e0       	ldi	r23, 0x04	; 4
    2ccc:	e1 c3       	rjmp	.+1986   	; 0x3490 <__stack+0x1291>
    2cce:	68 e8       	ldi	r22, 0x88	; 136
    2cd0:	73 e0       	ldi	r23, 0x03	; 3
    2cd2:	c7 01       	movw	r24, r14
    2cd4:	0e 94 3e 5c 	call	0xb87c	; 0xb87c <strcmp>
    2cd8:	89 2b       	or	r24, r25
    2cda:	49 f5       	brne	.+82     	; 0x2d2e <__stack+0xb2f>
    2cdc:	0e 94 65 30 	call	0x60ca	; 0x60ca <_Z9upSecondsv>
            Ethernet1.getCmdClient().println(F(" percent for feedback based moves."));
    2ce0:	d8 2e       	mov	r13, r24
    2ce2:	c9 2e       	mov	r12, r25
    2ce4:	0e 94 53 30 	call	0x60a6	; 0x60a6 <_Z9upMinutesv>
          }
        }
      } else {

      if ( strcmp(pch, "uptime") == 0) {
    2ce8:	f8 2e       	mov	r15, r24
    2cea:	e9 2e       	mov	r14, r25
    2cec:	0e 94 49 30 	call	0x6092	; 0x6092 <_Z7upHoursv>
    2cf0:	cf 92       	push	r12
    2cf2:	df 92       	push	r13
        char upTimeString[100];
        snprintf(upTimeString, 100, "%d:%02d:%02d HH:MM:SS", upHours(), upMinutes(), upSeconds());
    2cf4:	ef 92       	push	r14
    2cf6:	ff 92       	push	r15
    2cf8:	9f 93       	push	r25
    2cfa:	8f 93       	push	r24
    2cfc:	8f e8       	ldi	r24, 0x8F	; 143
    2cfe:	93 e0       	ldi	r25, 0x03	; 3
    2d00:	9f 93       	push	r25
    2d02:	8f 93       	push	r24
    2d04:	1f 92       	push	r1
    2d06:	84 e6       	ldi	r24, 0x64	; 100
    2d08:	8f 93       	push	r24
    2d0a:	fe 01       	movw	r30, r28
    2d0c:	31 96       	adiw	r30, 0x01	; 1
    2d0e:	7f 01       	movw	r14, r30
    2d10:	ff 92       	push	r15
    2d12:	ef 93       	push	r30
    2d14:	0e 94 c3 5c 	call	0xb986	; 0xb986 <snprintf>
    2d18:	b7 01       	movw	r22, r14
    2d1a:	8a ed       	ldi	r24, 0xDA	; 218
    2d1c:	97 e0       	ldi	r25, 0x07	; 7
    2d1e:	0e 94 ba 4f 	call	0x9f74	; 0x9f74 <_ZN5Print7printlnEPKc>
    2d22:	0f b6       	in	r0, 0x3f	; 63
    2d24:	f8 94       	cli
    2d26:	de bf       	out	0x3e, r29	; 62
    2d28:	0f be       	out	0x3f, r0	; 63
    2d2a:	cd bf       	out	0x3d, r28	; 61
    2d2c:	f5 c0       	rjmp	.+490    	; 0x2f18 <__stack+0xd19>
    2d2e:	65 ea       	ldi	r22, 0xA5	; 165
        Ethernet1.getCmdClient().println(upTimeString);
    2d30:	73 e0       	ldi	r23, 0x03	; 3
    2d32:	c7 01       	movw	r24, r14
    2d34:	0e 94 3e 5c 	call	0xb87c	; 0xb87c <strcmp>
    2d38:	89 2b       	or	r24, r25
    2d3a:	41 f0       	breq	.+16     	; 0x2d4c <__stack+0xb4d>
    2d3c:	6a ea       	ldi	r22, 0xAA	; 170
    2d3e:	73 e0       	ldi	r23, 0x03	; 3
    2d40:	c7 01       	movw	r24, r14
    2d42:	0e 94 3e 5c 	call	0xb87c	; 0xb87c <strcmp>
      } else {

      if ( strcmp(pch, "help") == 0 ||  strcmp(pch, "?") == 0) {
    2d46:	89 2b       	or	r24, r25
    2d48:	09 f0       	breq	.+2      	; 0x2d4c <__stack+0xb4d>
    2d4a:	db c0       	rjmp	.+438    	; 0x2f02 <__stack+0xd03>
    2d4c:	69 e1       	ldi	r22, 0x19	; 25
    2d4e:	74 e0       	ldi	r23, 0x04	; 4
    2d50:	8a ed       	ldi	r24, 0xDA	; 218
    2d52:	97 e0       	ldi	r25, 0x07	; 7
    2d54:	0e 94 9a 4f 	call	0x9f34	; 0x9f34 <_ZN5Print7printlnEPK19__FlashStringHelper>
    2d58:	64 e0       	ldi	r22, 0x04	; 4
    2d5a:	74 e0       	ldi	r23, 0x04	; 4
    2d5c:	8a ed       	ldi	r24, 0xDA	; 218
    2d5e:	97 e0       	ldi	r25, 0x07	; 7
    2d60:	0e 94 9a 4f 	call	0x9f34	; 0x9f34 <_ZN5Print7printlnEPK19__FlashStringHelper>
        Ethernet1.getCmdClient().println(F("\nCommands Available:\n"));
    2d64:	65 ee       	ldi	r22, 0xE5	; 229
    2d66:	73 e0       	ldi	r23, 0x03	; 3
    2d68:	8a ed       	ldi	r24, 0xDA	; 218
    2d6a:	97 e0       	ldi	r25, 0x07	; 7
    2d6c:	0e 94 9a 4f 	call	0x9f34	; 0x9f34 <_ZN5Print7printlnEPK19__FlashStringHelper>
        Ethernet1.getCmdClient().println(F("\n  Network Commands:"));
    2d70:	6d ec       	ldi	r22, 0xCD	; 205
    2d72:	73 e0       	ldi	r23, 0x03	; 3
    2d74:	8a ed       	ldi	r24, 0xDA	; 218
    2d76:	97 e0       	ldi	r25, 0x07	; 7
    2d78:	0e 94 9a 4f 	call	0x9f34	; 0x9f34 <_ZN5Print7printlnEPK19__FlashStringHelper>
        Ethernet1.getCmdClient().println(F("    ip_address xxx,xxx,xxx,xxx"));
    2d7c:	61 eb       	ldi	r22, 0xB1	; 177
    2d7e:	73 e0       	ldi	r23, 0x03	; 3
    2d80:	8a ed       	ldi	r24, 0xDA	; 218
    2d82:	97 e0       	ldi	r25, 0x07	; 7
    2d84:	0e 94 9a 4f 	call	0x9f34	; 0x9f34 <_ZN5Print7printlnEPK19__FlashStringHelper>
        Ethernet1.getCmdClient().println(F("    dns xxx,xxx,xxx,xxx"));
    2d88:	66 e9       	ldi	r22, 0x96	; 150
    2d8a:	73 e0       	ldi	r23, 0x03	; 3
    2d8c:	8a ed       	ldi	r24, 0xDA	; 218
    2d8e:	97 e0       	ldi	r25, 0x07	; 7
    2d90:	0e 94 9a 4f 	call	0x9f34	; 0x9f34 <_ZN5Print7printlnEPK19__FlashStringHelper>
        Ethernet1.getCmdClient().println(F("    gateway xxx,xxx,xxx,xxx"));
    2d94:	66 e8       	ldi	r22, 0x86	; 134
    2d96:	73 e0       	ldi	r23, 0x03	; 3
    2d98:	8a ed       	ldi	r24, 0xDA	; 218
    2d9a:	97 e0       	ldi	r25, 0x07	; 7
    2d9c:	0e 94 9a 4f 	call	0x9f34	; 0x9f34 <_ZN5Print7printlnEPK19__FlashStringHelper>
        Ethernet1.getCmdClient().println(F("    subnet xxx,xxx,xxx,xxx"));
    2da0:	63 e7       	ldi	r22, 0x73	; 115
    2da2:	73 e0       	ldi	r23, 0x03	; 3
    2da4:	8a ed       	ldi	r24, 0xDA	; 218
    2da6:	97 e0       	ldi	r25, 0x07	; 7
    2da8:	0e 94 9a 4f 	call	0x9f34	; 0x9f34 <_ZN5Print7printlnEPK19__FlashStringHelper>
        Ethernet1.getCmdClient().println(F("    port_base x"));
    2dac:	6a e6       	ldi	r22, 0x6A	; 106
    2dae:	73 e0       	ldi	r23, 0x03	; 3
    2db0:	8a ed       	ldi	r24, 0xDA	; 218
    2db2:	97 e0       	ldi	r25, 0x07	; 7
    2db4:	0e 94 9a 4f 	call	0x9f34	; 0x9f34 <_ZN5Print7printlnEPK19__FlashStringHelper>
        Ethernet1.getCmdClient().println(F("\n  Motor Commands:"));
    2db8:	60 e5       	ldi	r22, 0x50	; 80
    2dba:	73 e0       	ldi	r23, 0x03	; 3
    2dbc:	8a ed       	ldi	r24, 0xDA	; 218
    2dbe:	97 e0       	ldi	r25, 0x07	; 7
    2dc0:	0e 94 9a 4f 	call	0x9f34	; 0x9f34 <_ZN5Print7printlnEPK19__FlashStringHelper>
        Ethernet1.getCmdClient().println(F("    stop"));
    2dc4:	64 e3       	ldi	r22, 0x34	; 52
    2dc6:	73 e0       	ldi	r23, 0x03	; 3
    2dc8:	8a ed       	ldi	r24, 0xDA	; 218
    2dca:	97 e0       	ldi	r25, 0x07	; 7
    2dcc:	0e 94 9a 4f 	call	0x9f34	; 0x9f34 <_ZN5Print7printlnEPK19__FlashStringHelper>
        Ethernet1.getCmdClient().println(F("    up_revolutions x at x"));
    2dd0:	6d e1       	ldi	r22, 0x1D	; 29
    2dd2:	73 e0       	ldi	r23, 0x03	; 3
    2dd4:	8a ed       	ldi	r24, 0xDA	; 218
    2dd6:	97 e0       	ldi	r25, 0x07	; 7
    2dd8:	0e 94 9a 4f 	call	0x9f34	; 0x9f34 <_ZN5Print7printlnEPK19__FlashStringHelper>
        Ethernet1.getCmdClient().println(F("    down_revolutions x at x"));
    2ddc:	64 e0       	ldi	r22, 0x04	; 4
    2dde:	73 e0       	ldi	r23, 0x03	; 3
    2de0:	8a ed       	ldi	r24, 0xDA	; 218
    2de2:	97 e0       	ldi	r25, 0x07	; 7
    2de4:	0e 94 9a 4f 	call	0x9f34	; 0x9f34 <_ZN5Print7printlnEPK19__FlashStringHelper>
        Ethernet1.getCmdClient().println(F("    up_distance x at x"));
    2de8:	66 ee       	ldi	r22, 0xE6	; 230
    2dea:	72 e0       	ldi	r23, 0x02	; 2
    2dec:	8a ed       	ldi	r24, 0xDA	; 218
    2dee:	97 e0       	ldi	r25, 0x07	; 7
    2df0:	0e 94 9a 4f 	call	0x9f34	; 0x9f34 <_ZN5Print7printlnEPK19__FlashStringHelper>
        Ethernet1.getCmdClient().println(F("    down_distance x at x"));
    2df4:	6a ec       	ldi	r22, 0xCA	; 202
    2df6:	72 e0       	ldi	r23, 0x02	; 2
    2df8:	8a ed       	ldi	r24, 0xDA	; 218
    2dfa:	97 e0       	ldi	r25, 0x07	; 7
    2dfc:	0e 94 9a 4f 	call	0x9f34	; 0x9f34 <_ZN5Print7printlnEPK19__FlashStringHelper>
        Ethernet1.getCmdClient().println(F("    move_to_revolution x at x"));
    2e00:	6d eb       	ldi	r22, 0xBD	; 189
    2e02:	72 e0       	ldi	r23, 0x02	; 2
    2e04:	8a ed       	ldi	r24, 0xDA	; 218
    2e06:	97 e0       	ldi	r25, 0x07	; 7
    2e08:	0e 94 9a 4f 	call	0x9f34	; 0x9f34 <_ZN5Print7printlnEPK19__FlashStringHelper>
        Ethernet1.getCmdClient().println(F("    move_to_position x at x"));
    2e0c:	6c ea       	ldi	r22, 0xAC	; 172
    2e0e:	72 e0       	ldi	r23, 0x02	; 2
    2e10:	8a ed       	ldi	r24, 0xDA	; 218
    2e12:	97 e0       	ldi	r25, 0x07	; 7
    2e14:	0e 94 9a 4f 	call	0x9f34	; 0x9f34 <_ZN5Print7printlnEPK19__FlashStringHelper>
        Ethernet1.getCmdClient().println(F("    set_zero"));
    2e18:	6c e9       	ldi	r22, 0x9C	; 156
    2e1a:	72 e0       	ldi	r23, 0x02	; 2
    2e1c:	8a ed       	ldi	r24, 0xDA	; 218
    2e1e:	97 e0       	ldi	r25, 0x07	; 7
    2e20:	0e 94 9a 4f 	call	0x9f34	; 0x9f34 <_ZN5Print7printlnEPK19__FlashStringHelper>
        Ethernet1.getCmdClient().println(F("    amps_limit x"));
    2e24:	6c e8       	ldi	r22, 0x8C	; 140
    2e26:	72 e0       	ldi	r23, 0x02	; 2
    2e28:	8a ed       	ldi	r24, 0xDA	; 218
    2e2a:	97 e0       	ldi	r25, 0x07	; 7
    2e2c:	0e 94 9a 4f 	call	0x9f34	; 0x9f34 <_ZN5Print7printlnEPK19__FlashStringHelper>
        Ethernet1.getCmdClient().println(F("    motor_cpr x"));
    2e30:	66 e7       	ldi	r22, 0x76	; 118
    2e32:	72 e0       	ldi	r23, 0x02	; 2
    2e34:	8a ed       	ldi	r24, 0xDA	; 218
    2e36:	97 e0       	ldi	r25, 0x07	; 7
    2e38:	0e 94 9a 4f 	call	0x9f34	; 0x9f34 <_ZN5Print7printlnEPK19__FlashStringHelper>
        Ethernet1.getCmdClient().println(F("    motor_rpm x"));
    2e3c:	6e e5       	ldi	r22, 0x5E	; 94
    2e3e:	72 e0       	ldi	r23, 0x02	; 2
    2e40:	8a ed       	ldi	r24, 0xDA	; 218
    2e42:	97 e0       	ldi	r25, 0x07	; 7
    2e44:	0e 94 9a 4f 	call	0x9f34	; 0x9f34 <_ZN5Print7printlnEPK19__FlashStringHelper>
        Ethernet1.getCmdClient().println(F("    max_revolutions x"));
    2e48:	62 e5       	ldi	r22, 0x52	; 82
    2e4a:	72 e0       	ldi	r23, 0x02	; 2
    2e4c:	8a ed       	ldi	r24, 0xDA	; 218
    2e4e:	97 e0       	ldi	r25, 0x07	; 7
    2e50:	0e 94 9a 4f 	call	0x9f34	; 0x9f34 <_ZN5Print7printlnEPK19__FlashStringHelper>
        Ethernet1.getCmdClient().println(F("\n  PID Tuning Commands:"));
    2e54:	66 e4       	ldi	r22, 0x46	; 70
    2e56:	72 e0       	ldi	r23, 0x02	; 2
    2e58:	8a ed       	ldi	r24, 0xDA	; 218
    2e5a:	97 e0       	ldi	r25, 0x07	; 7
    2e5c:	0e 94 9a 4f 	call	0x9f34	; 0x9f34 <_ZN5Print7printlnEPK19__FlashStringHelper>
        Ethernet1.getCmdClient().println(F("    pterm x"));
    2e60:	6a e3       	ldi	r22, 0x3A	; 58
    2e62:	72 e0       	ldi	r23, 0x02	; 2
    2e64:	8a ed       	ldi	r24, 0xDA	; 218
    2e66:	97 e0       	ldi	r25, 0x07	; 7
    2e68:	0e 94 9a 4f 	call	0x9f34	; 0x9f34 <_ZN5Print7printlnEPK19__FlashStringHelper>
        Ethernet1.getCmdClient().println(F("    iterm x"));
    2e6c:	6a e2       	ldi	r22, 0x2A	; 42
    2e6e:	72 e0       	ldi	r23, 0x02	; 2
    2e70:	8a ed       	ldi	r24, 0xDA	; 218
    2e72:	97 e0       	ldi	r25, 0x07	; 7
    2e74:	0e 94 9a 4f 	call	0x9f34	; 0x9f34 <_ZN5Print7printlnEPK19__FlashStringHelper>
        Ethernet1.getCmdClient().println(F("    dterm x"));
    2e78:	60 e2       	ldi	r22, 0x20	; 32
    2e7a:	72 e0       	ldi	r23, 0x02	; 2
    2e7c:	8a ed       	ldi	r24, 0xDA	; 218
    2e7e:	97 e0       	ldi	r25, 0x07	; 7
    2e80:	0e 94 9a 4f 	call	0x9f34	; 0x9f34 <_ZN5Print7printlnEPK19__FlashStringHelper>
        Ethernet1.getCmdClient().println(F("    pidscalar x"));
    2e84:	6f e0       	ldi	r22, 0x0F	; 15
    2e86:	72 e0       	ldi	r23, 0x02	; 2
    2e88:	8a ed       	ldi	r24, 0xDA	; 218
    2e8a:	97 e0       	ldi	r25, 0x07	; 7
    2e8c:	0e 94 9a 4f 	call	0x9f34	; 0x9f34 <_ZN5Print7printlnEPK19__FlashStringHelper>
        Ethernet1.getCmdClient().println(F("    vff x"));
    2e90:	6b ef       	ldi	r22, 0xFB	; 251
    2e92:	71 e0       	ldi	r23, 0x01	; 1
    2e94:	8a ed       	ldi	r24, 0xDA	; 218
    2e96:	97 e0       	ldi	r25, 0x07	; 7
    2e98:	0e 94 9a 4f 	call	0x9f34	; 0x9f34 <_ZN5Print7printlnEPK19__FlashStringHelper>
        Ethernet1.getCmdClient().println(F("    store_tuning"));
    2e9c:	6d ee       	ldi	r22, 0xED	; 237
    2e9e:	71 e0       	ldi	r23, 0x01	; 1
    2ea0:	8a ed       	ldi	r24, 0xDA	; 218
    2ea2:	97 e0       	ldi	r25, 0x07	; 7
    2ea4:	0e 94 9a 4f 	call	0x9f34	; 0x9f34 <_ZN5Print7printlnEPK19__FlashStringHelper>
        Ethernet1.getCmdClient().println(F("\n  System Commands:"));
    2ea8:	6e ed       	ldi	r22, 0xDE	; 222
    2eaa:	71 e0       	ldi	r23, 0x01	; 1
    2eac:	8a ed       	ldi	r24, 0xDA	; 218
    2eae:	97 e0       	ldi	r25, 0x07	; 7
    2eb0:	0e 94 9a 4f 	call	0x9f34	; 0x9f34 <_ZN5Print7printlnEPK19__FlashStringHelper>
        Ethernet1.getCmdClient().println(F("    fb_period"));
    2eb4:	63 ed       	ldi	r22, 0xD3	; 211
    2eb6:	71 e0       	ldi	r23, 0x01	; 1
    2eb8:	8a ed       	ldi	r24, 0xDA	; 218
    2eba:	97 e0       	ldi	r25, 0x07	; 7
    2ebc:	0e 94 9a 4f 	call	0x9f34	; 0x9f34 <_ZN5Print7printlnEPK19__FlashStringHelper>
        Ethernet1.getCmdClient().println(F("    save_state"));
    2ec0:	64 ec       	ldi	r22, 0xC4	; 196
    2ec2:	71 e0       	ldi	r23, 0x01	; 1
    2ec4:	8a ed       	ldi	r24, 0xDA	; 218
    2ec6:	97 e0       	ldi	r25, 0x07	; 7
    2ec8:	0e 94 9a 4f 	call	0x9f34	; 0x9f34 <_ZN5Print7printlnEPK19__FlashStringHelper>
        Ethernet1.getCmdClient().println(F("    reboot"));
    2ecc:	6f ea       	ldi	r22, 0xAF	; 175
    2ece:	71 e0       	ldi	r23, 0x01	; 1
    2ed0:	8a ed       	ldi	r24, 0xDA	; 218
    2ed2:	97 e0       	ldi	r25, 0x07	; 7
    2ed4:	0e 94 9a 4f 	call	0x9f34	; 0x9f34 <_ZN5Print7printlnEPK19__FlashStringHelper>
        Ethernet1.getCmdClient().println(F("    motor_time"));
    2ed8:	6e e9       	ldi	r22, 0x9E	; 158
    2eda:	71 e0       	ldi	r23, 0x01	; 1
    2edc:	8a ed       	ldi	r24, 0xDA	; 218
    2ede:	97 e0       	ldi	r25, 0x07	; 7
    2ee0:	0e 94 9a 4f 	call	0x9f34	; 0x9f34 <_ZN5Print7printlnEPK19__FlashStringHelper>
        Ethernet1.getCmdClient().println(F("    reset_motor_time"));
    2ee4:	66 e9       	ldi	r22, 0x96	; 150
    2ee6:	71 e0       	ldi	r23, 0x01	; 1
    2ee8:	8a ed       	ldi	r24, 0xDA	; 218
    2eea:	97 e0       	ldi	r25, 0x07	; 7
    2eec:	0e 94 9a 4f 	call	0x9f34	; 0x9f34 <_ZN5Print7printlnEPK19__FlashStringHelper>
        Ethernet1.getCmdClient().println(F("    clearreports"));
    2ef0:	6b e8       	ldi	r22, 0x8B	; 139
    2ef2:	71 e0       	ldi	r23, 0x01	; 1
    2ef4:	8a ed       	ldi	r24, 0xDA	; 218
    2ef6:	97 e0       	ldi	r25, 0x07	; 7
    2ef8:	0e 94 9a 4f 	call	0x9f34	; 0x9f34 <_ZN5Print7printlnEPK19__FlashStringHelper>
        Ethernet1.getCmdClient().println(F("    ver"));
    2efc:	6a e8       	ldi	r22, 0x8A	; 138
    2efe:	71 e0       	ldi	r23, 0x01	; 1
    2f00:	c7 c2       	rjmp	.+1422   	; 0x3490 <__stack+0x1291>
    2f02:	6c e7       	ldi	r22, 0x7C	; 124
    2f04:	71 e0       	ldi	r23, 0x01	; 1
    2f06:	8a ed       	ldi	r24, 0xDA	; 218
        Ethernet1.getCmdClient().println(F("    uptime"));
    2f08:	97 e0       	ldi	r25, 0x07	; 7
    2f0a:	0e 94 43 4f 	call	0x9e86	; 0x9e86 <_ZN5Print5printEPK19__FlashStringHelper>
    2f0e:	b8 01       	movw	r22, r16
    2f10:	8a ed       	ldi	r24, 0xDA	; 218
    2f12:	97 e0       	ldi	r25, 0x07	; 7
        Ethernet1.getCmdClient().println(F(""));
    2f14:	0e 94 ba 4f 	call	0x9f74	; 0x9f74 <_ZN5Print7printlnEPKc>
    2f18:	80 e8       	ldi	r24, 0x80	; 128
      } else {

        Ethernet1.getCmdClient().print(F("Bad command: ")); Ethernet1.getCmdClient().println(cmdBuf);
    2f1a:	f8 01       	movw	r30, r16
    2f1c:	11 92       	st	Z+, r1
    2f1e:	8a 95       	dec	r24
    2f20:	e9 f7       	brne	.-6      	; 0x2f1c <__stack+0xd1d>
    2f22:	bb c2       	rjmp	.+1398   	; 0x349a <__stack+0x129b>
    2f24:	b7 01       	movw	r22, r14
    2f26:	8e e6       	ldi	r24, 0x6E	; 110
    2f28:	97 e0       	ldi	r25, 0x07	; 7
    2f2a:	0e 94 18 27 	call	0x4e30	; 0x4e30 <_ZN8MM3Class9moveSetupEi>
    2f2e:	40 91 a7 06 	lds	r20, 0x06A7
      }}}}}}}}}}}}}}}}}}}}}}}}}}}}}}}}}

    }
      memset(cmdBuf, 0, CMD_BUF_LEN);  // clear the command buffer after processing
    2f32:	50 91 a8 06 	lds	r21, 0x06A8
    2f36:	60 91 a9 06 	lds	r22, 0x06A9
    2f3a:	70 91 aa 06 	lds	r23, 0x06AA
        } else {
        if ( MCtrl.isNoRaise() || MCtrl.isBrake() ) { 
          Ethernet1.getCmdClient().println(F("Cannot raise due to NO_RAISE or E_STOP input."));
        } else {
          // do the move
          MCtrl.moveSetup(speedPct);
    2f3e:	70 58       	subi	r23, 0x80	; 128
    2f40:	8e e6       	ldi	r24, 0x6E	; 110
    2f42:	97 e0       	ldi	r25, 0x07	; 7
    2f44:	0e 94 6c 25 	call	0x4ad8	; 0x4ad8 <_ZN8MM3Class12moveRelativeEd>
          MCtrl.moveRelative(-1.0 * moveTarget);
    2f48:	65 ef       	ldi	r22, 0xF5	; 245
    2f4a:	7c e0       	ldi	r23, 0x0C	; 12
    2f4c:	8a ed       	ldi	r24, 0xDA	; 218
    2f4e:	97 e0       	ldi	r25, 0x07	; 7
    2f50:	0e 94 43 4f 	call	0x9e86	; 0x9e86 <_ZN5Print5printEPK19__FlashStringHelper>
    2f54:	40 91 a7 06 	lds	r20, 0x06A7
    2f58:	50 91 a8 06 	lds	r21, 0x06A8
    2f5c:	60 91 a9 06 	lds	r22, 0x06A9
          
          Ethernet1.getCmdClient().print(F("Moving up ")); Ethernet1.getCmdClient().print(moveTarget);
    2f60:	70 91 aa 06 	lds	r23, 0x06AA
    2f64:	22 e0       	ldi	r18, 0x02	; 2
    2f66:	30 e0       	ldi	r19, 0x00	; 0
    2f68:	8a ed       	ldi	r24, 0xDA	; 218
    2f6a:	97 e0       	ldi	r25, 0x07	; 7
    2f6c:	0e 94 c7 51 	call	0xa38e	; 0xa38e <_ZN5Print5printEdi>
    2f70:	64 ee       	ldi	r22, 0xE4	; 228
    2f72:	7c e0       	ldi	r23, 0x0C	; 12
    2f74:	8a ed       	ldi	r24, 0xDA	; 218
    2f76:	97 e0       	ldi	r25, 0x07	; 7
    2f78:	0e 94 43 4f 	call	0x9e86	; 0x9e86 <_ZN5Print5printEPK19__FlashStringHelper>
    2f7c:	4a e0       	ldi	r20, 0x0A	; 10
    2f7e:	50 e0       	ldi	r21, 0x00	; 0
    2f80:	b7 01       	movw	r22, r14
    2f82:	8a ed       	ldi	r24, 0xDA	; 218
    2f84:	97 e0       	ldi	r25, 0x07	; 7
    2f86:	0e 94 78 50 	call	0xa0f0	; 0xa0f0 <_ZN5Print5printEii>
          Ethernet1.getCmdClient().print(F(" revolutions at "));
    2f8a:	6c ec       	ldi	r22, 0xCC	; 204
    2f8c:	7c e0       	ldi	r23, 0x0C	; 12
    2f8e:	a7 c1       	rjmp	.+846    	; 0x32de <__stack+0x10df>
    2f90:	b7 01       	movw	r22, r14
    2f92:	8e e6       	ldi	r24, 0x6E	; 110
          Ethernet1.getCmdClient().print(speedPct); Ethernet1.getCmdClient().println(F(" percent of full speed."));
    2f94:	97 e0       	ldi	r25, 0x07	; 7
    2f96:	0e 94 18 27 	call	0x4e30	; 0x4e30 <_ZN8MM3Class9moveSetupEi>
    2f9a:	40 91 a7 06 	lds	r20, 0x06A7
    2f9e:	50 91 a8 06 	lds	r21, 0x06A8
    2fa2:	60 91 a9 06 	lds	r22, 0x06A9
    2fa6:	70 91 aa 06 	lds	r23, 0x06AA
        } else {
        if ( MCtrl.isNoLower() || MCtrl.isBrake() ) { 
          Ethernet1.getCmdClient().println(F("Cannot lower due to NO_LOWER or E_STOP input."));
        } else {
          // do the move
          MCtrl.moveSetup(speedPct);
    2faa:	8e e6       	ldi	r24, 0x6E	; 110
    2fac:	97 e0       	ldi	r25, 0x07	; 7
    2fae:	0e 94 6c 25 	call	0x4ad8	; 0x4ad8 <_ZN8MM3Class12moveRelativeEd>
          MCtrl.moveRelative(moveTarget);
    2fb2:	63 e8       	ldi	r22, 0x83	; 131
    2fb4:	7c e0       	ldi	r23, 0x0C	; 12
    2fb6:	8a ed       	ldi	r24, 0xDA	; 218
    2fb8:	97 e0       	ldi	r25, 0x07	; 7
    2fba:	0e 94 43 4f 	call	0x9e86	; 0x9e86 <_ZN5Print5printEPK19__FlashStringHelper>
    2fbe:	40 91 a7 06 	lds	r20, 0x06A7
    2fc2:	50 91 a8 06 	lds	r21, 0x06A8
    2fc6:	60 91 a9 06 	lds	r22, 0x06A9
          
          Ethernet1.getCmdClient().print(F("Moving down ")); Ethernet1.getCmdClient().print(moveTarget);
    2fca:	70 91 aa 06 	lds	r23, 0x06AA
    2fce:	22 e0       	ldi	r18, 0x02	; 2
    2fd0:	30 e0       	ldi	r19, 0x00	; 0
    2fd2:	8a ed       	ldi	r24, 0xDA	; 218
    2fd4:	97 e0       	ldi	r25, 0x07	; 7
    2fd6:	0e 94 c7 51 	call	0xa38e	; 0xa38e <_ZN5Print5printEdi>
    2fda:	62 e7       	ldi	r22, 0x72	; 114
    2fdc:	7c e0       	ldi	r23, 0x0C	; 12
    2fde:	8a ed       	ldi	r24, 0xDA	; 218
    2fe0:	97 e0       	ldi	r25, 0x07	; 7
    2fe2:	0e 94 43 4f 	call	0x9e86	; 0x9e86 <_ZN5Print5printEPK19__FlashStringHelper>
    2fe6:	4a e0       	ldi	r20, 0x0A	; 10
    2fe8:	50 e0       	ldi	r21, 0x00	; 0
    2fea:	b7 01       	movw	r22, r14
    2fec:	8a ed       	ldi	r24, 0xDA	; 218
    2fee:	97 e0       	ldi	r25, 0x07	; 7
    2ff0:	0e 94 78 50 	call	0xa0f0	; 0xa0f0 <_ZN5Print5printEii>
          Ethernet1.getCmdClient().print(F(" revolutions at "));
    2ff4:	6a e5       	ldi	r22, 0x5A	; 90
    2ff6:	7c e0       	ldi	r23, 0x0C	; 12
    2ff8:	72 c1       	rjmp	.+740    	; 0x32de <__stack+0x10df>
    2ffa:	6c e4       	ldi	r22, 0x4C	; 76
    2ffc:	7c e0       	ldi	r23, 0x0C	; 12
          Ethernet1.getCmdClient().print(speedPct); Ethernet1.getCmdClient().println(F(" percent of full speed."));
    2ffe:	8a ed       	ldi	r24, 0xDA	; 218
    3000:	97 e0       	ldi	r25, 0x07	; 7
    3002:	0e 94 43 4f 	call	0x9e86	; 0x9e86 <_ZN5Print5printEPK19__FlashStringHelper>
    3006:	b8 01       	movw	r22, r16
    3008:	8a ed       	ldi	r24, 0xDA	; 218
    300a:	97 e0       	ldi	r25, 0x07	; 7
    300c:	0e 94 76 4f 	call	0x9eec	; 0x9eec <_ZN5Print5printEPKc>
    3010:	6e e0       	ldi	r22, 0x0E	; 14
      } else {
        
      if ( strcmp(pch, "up_distance") == 0) {
        int speedPct = parseMove();
        if (speedPct < 2 || speedPct > posFB.getFeedbackMaxSpeed() || moveTarget <= 0.0) {
          Ethernet1.getCmdClient().print(F("Bad command: ")); Ethernet1.getCmdClient().print(cmdBuf);
    3012:	7c e0       	ldi	r23, 0x0C	; 12
    3014:	8a ed       	ldi	r24, 0xDA	; 218
    3016:	97 e0       	ldi	r25, 0x07	; 7
    3018:	0e 94 43 4f 	call	0x9e86	; 0x9e86 <_ZN5Print5printEPK19__FlashStringHelper>
    301c:	60 91 b3 06 	lds	r22, 0x06B3
    3020:	70 91 b4 06 	lds	r23, 0x06B4
    3024:	4a e0       	ldi	r20, 0x0A	; 10
    3026:	50 e0       	ldi	r21, 0x00	; 0
          Ethernet1.getCmdClient().print(F("  Distance must be positive and speed must be from 2 through "));
    3028:	8a ed       	ldi	r24, 0xDA	; 218
    302a:	97 e0       	ldi	r25, 0x07	; 7
    302c:	0e 94 78 50 	call	0xa0f0	; 0xa0f0 <_ZN5Print5printEii>
    3030:	64 e0       	ldi	r22, 0x04	; 4
    3032:	7c e0       	ldi	r23, 0x0C	; 12
          Ethernet1.getCmdClient().print(posFB.getFeedbackMaxSpeed()); Ethernet1.getCmdClient().println(F(" percent."));
    3034:	2d c2       	rjmp	.+1114   	; 0x3490 <__stack+0x1291>
    3036:	80 91 76 07 	lds	r24, 0x0776
    303a:	90 91 77 07 	lds	r25, 0x0777
    303e:	85 70       	andi	r24, 0x05	; 5
    3040:	99 27       	eor	r25, r25
    3042:	89 2b       	or	r24, r25
    3044:	19 f0       	breq	.+6      	; 0x304c <__stack+0xe4d>
    3046:	66 ed       	ldi	r22, 0xD6	; 214
    3048:	7b e0       	ldi	r23, 0x0B	; 11
    304a:	22 c2       	rjmp	.+1092   	; 0x3490 <__stack+0x1291>
    304c:	83 eb       	ldi	r24, 0xB3	; 179
    304e:	96 e0       	ldi	r25, 0x06	; 6
    3050:	0e 94 84 2a 	call	0x5508	; 0x5508 <_ZN21PositionFeedbackClass26haveRecentPositionFeedbackEv>
    3054:	88 23       	and	r24, r24
    3056:	09 f4       	brne	.+2      	; 0x305a <__stack+0xe5b>
    3058:	59 c0       	rjmp	.+178    	; 0x310c <__stack+0xf0d>
        } else {
        if ( MCtrl.isNoRaise() || MCtrl.isBrake() ) { 
    305a:	b7 01       	movw	r22, r14
    305c:	8e e6       	ldi	r24, 0x6E	; 110
          Ethernet1.getCmdClient().println(F("Cannot raise due to NO_RAISE or E_STOP input."));
    305e:	97 e0       	ldi	r25, 0x07	; 7
    3060:	0e 94 18 27 	call	0x4e30	; 0x4e30 <_ZN8MM3Class9moveSetupEi>
        } else {
          if (posFB.haveRecentPositionFeedback() == true) {
    3064:	b7 01       	movw	r22, r14
    3066:	83 eb       	ldi	r24, 0xB3	; 179
    3068:	96 e0       	ldi	r25, 0x06	; 6
    306a:	0e 94 5c 2a 	call	0x54b8	; 0x54b8 <_ZN21PositionFeedbackClass16setFeedbackDeltaEi>
    306e:	66 27       	eor	r22, r22
    3070:	77 27       	eor	r23, r23
            // do the move
            MCtrl.moveSetup(speedPct);
    3072:	6e 19       	sub	r22, r14
    3074:	7f 09       	sbc	r23, r15
    3076:	8e e6       	ldi	r24, 0x6E	; 110
    3078:	97 e0       	ldi	r25, 0x07	; 7
    307a:	0e 94 7b 24 	call	0x48f6	; 0x48f6 <_ZN8MM3Class11moveAtSpeedEi>
            posFB.setFeedbackDelta(speedPct);
    307e:	6b ec       	ldi	r22, 0xCB	; 203
    3080:	7b e0       	ldi	r23, 0x0B	; 11
    3082:	8a ed       	ldi	r24, 0xDA	; 218
    3084:	97 e0       	ldi	r25, 0x07	; 7
            MCtrl.moveAtSpeed(-1 * speedPct);
    3086:	0e 94 43 4f 	call	0x9e86	; 0x9e86 <_ZN5Print5printEPK19__FlashStringHelper>
    308a:	40 91 a7 06 	lds	r20, 0x06A7
    308e:	50 91 a8 06 	lds	r21, 0x06A8
    3092:	60 91 a9 06 	lds	r22, 0x06A9
            
            Ethernet1.getCmdClient().print(F("Moving up ")); Ethernet1.getCmdClient().print(moveTarget);
    3096:	70 91 aa 06 	lds	r23, 0x06AA
    309a:	22 e0       	ldi	r18, 0x02	; 2
    309c:	30 e0       	ldi	r19, 0x00	; 0
    309e:	8a ed       	ldi	r24, 0xDA	; 218
    30a0:	97 e0       	ldi	r25, 0x07	; 7
    30a2:	0e 94 c7 51 	call	0xa38e	; 0xa38e <_ZN5Print5printEdi>
    30a6:	6b ea       	ldi	r22, 0xAB	; 171
    30a8:	7b e0       	ldi	r23, 0x0B	; 11
    30aa:	8a ed       	ldi	r24, 0xDA	; 218
    30ac:	97 e0       	ldi	r25, 0x07	; 7
    30ae:	0e 94 43 4f 	call	0x9e86	; 0x9e86 <_ZN5Print5printEPK19__FlashStringHelper>
    30b2:	4a e0       	ldi	r20, 0x0A	; 10
    30b4:	50 e0       	ldi	r21, 0x00	; 0
    30b6:	b7 01       	movw	r22, r14
    30b8:	8a ed       	ldi	r24, 0xDA	; 218
    30ba:	97 e0       	ldi	r25, 0x07	; 7
    30bc:	0e 94 78 50 	call	0xa0f0	; 0xa0f0 <_ZN5Print5printEii>
            Ethernet1.getCmdClient().print(F(" based on position feedback at "));
    30c0:	63 e9       	ldi	r22, 0x93	; 147
    30c2:	7b e0       	ldi	r23, 0x0B	; 11
    30c4:	8a ed       	ldi	r24, 0xDA	; 218
    30c6:	97 e0       	ldi	r25, 0x07	; 7
    30c8:	0e 94 9a 4f 	call	0x9f34	; 0x9f34 <_ZN5Print7printlnEPK19__FlashStringHelper>
            Ethernet1.getCmdClient().print(speedPct); Ethernet1.getCmdClient().println(F(" percent of full speed."));
    30cc:	0e 94 65 2f 	call	0x5eca	; 0x5eca <_Z13checkIfMovingv>
    30d0:	20 91 a7 06 	lds	r18, 0x06A7
    30d4:	30 91 a8 06 	lds	r19, 0x06A8
    30d8:	40 91 a9 06 	lds	r20, 0x06A9
    30dc:	50 91 aa 06 	lds	r21, 0x06AA
    30e0:	60 91 bb 06 	lds	r22, 0x06BB
            checkIfMoving();
    30e4:	70 91 bc 06 	lds	r23, 0x06BC
            
            // convert moveTarget to an absolute position
            moveTarget = double(posFB.getFeedbackPosition()) - moveTarget;
    30e8:	80 91 bd 06 	lds	r24, 0x06BD
    30ec:	90 91 be 06 	lds	r25, 0x06BE
    30f0:	0e 94 3d 55 	call	0xaa7a	; 0xaa7a <__subsf3>
    30f4:	60 93 a7 06 	sts	0x06A7, r22
    30f8:	70 93 a8 06 	sts	0x06A8, r23
    30fc:	80 93 a9 06 	sts	0x06A9, r24
    3100:	90 93 aa 06 	sts	0x06AA, r25
    3104:	81 e0       	ldi	r24, 0x01	; 1
    3106:	80 93 c0 06 	sts	0x06C0, r24
    310a:	06 cf       	rjmp	.-500    	; 0x2f18 <__stack+0xd19>
    310c:	65 e8       	ldi	r22, 0x85	; 133
    310e:	7b e0       	ldi	r23, 0x0B	; 11
    3110:	8a ed       	ldi	r24, 0xDA	; 218
    3112:	97 e0       	ldi	r25, 0x07	; 7
    3114:	0e 94 43 4f 	call	0x9e86	; 0x9e86 <_ZN5Print5printEPK19__FlashStringHelper>
    3118:	b8 01       	movw	r22, r16
    311a:	8a ed       	ldi	r24, 0xDA	; 218

  float getFeedbackPosition() { return m_fbPos; }

  bool haveRecentPositionFeedback();
  bool movingUpWithFeedback() { return m_movingDownWithFeedback; }
  void setMovingUpWithFeedback(bool b) { m_movingUpWithFeedback = b; }
    311c:	97 e0       	ldi	r25, 0x07	; 7
    311e:	0e 94 76 4f 	call	0x9eec	; 0x9eec <_ZN5Print5printEPKc>
    3122:	67 e6       	ldi	r22, 0x67	; 103
            posFB.setMovingUpWithFeedback(true);
          } else {
            Ethernet1.getCmdClient().print(F("Bad command: ")); Ethernet1.getCmdClient().print(cmdBuf);
    3124:	7b e0       	ldi	r23, 0x0B	; 11
    3126:	b4 c1       	rjmp	.+872    	; 0x3490 <__stack+0x1291>
    3128:	80 91 76 07 	lds	r24, 0x0776
    312c:	90 91 77 07 	lds	r25, 0x0777
    3130:	86 70       	andi	r24, 0x06	; 6
    3132:	99 27       	eor	r25, r25
    3134:	89 2b       	or	r24, r25
    3136:	09 f1       	breq	.+66     	; 0x317a <__stack+0xf7b>
    3138:	63 ee       	ldi	r22, 0xE3	; 227
            Ethernet1.getCmdClient().println(F(" No recent position feedback."));
    313a:	7a e0       	ldi	r23, 0x0A	; 10
    313c:	a9 c1       	rjmp	.+850    	; 0x3490 <__stack+0x1291>
    313e:	69 e5       	ldi	r22, 0x59	; 89
    3140:	7b e0       	ldi	r23, 0x0B	; 11
    3142:	8a ed       	ldi	r24, 0xDA	; 218
    3144:	97 e0       	ldi	r25, 0x07	; 7
    3146:	0e 94 43 4f 	call	0x9e86	; 0x9e86 <_ZN5Print5printEPK19__FlashStringHelper>
    314a:	b8 01       	movw	r22, r16
        if (speedPct < 2 || speedPct > posFB.getFeedbackMaxSpeed() || moveTarget <= 0.0) {
          Ethernet1.getCmdClient().print(F("Bad command: ")); Ethernet1.getCmdClient().println(cmdBuf);
          Ethernet1.getCmdClient().print(F("  Distance must be positive and speed must be from 2 through "));
          Ethernet1.getCmdClient().print(posFB.getFeedbackMaxSpeed()); Ethernet1.getCmdClient().println(F(" percent."));
        } else {
        if ( MCtrl.isNoLower() || MCtrl.isBrake() ) { 
    314c:	8a ed       	ldi	r24, 0xDA	; 218
    314e:	97 e0       	ldi	r25, 0x07	; 7
          Ethernet1.getCmdClient().println(F("Cannot lower due to NO_LOWER or E_STOP input."));
    3150:	0e 94 ba 4f 	call	0x9f74	; 0x9f74 <_ZN5Print7printlnEPKc>
    3154:	6b e1       	ldi	r22, 0x1B	; 27
      } else {
        
      if ( strcmp(pch, "down_distance") == 0) {
        int speedPct = parseMove();
        if (speedPct < 2 || speedPct > posFB.getFeedbackMaxSpeed() || moveTarget <= 0.0) {
          Ethernet1.getCmdClient().print(F("Bad command: ")); Ethernet1.getCmdClient().println(cmdBuf);
    3156:	7b e0       	ldi	r23, 0x0B	; 11
    3158:	8a ed       	ldi	r24, 0xDA	; 218
    315a:	97 e0       	ldi	r25, 0x07	; 7
    315c:	0e 94 43 4f 	call	0x9e86	; 0x9e86 <_ZN5Print5printEPK19__FlashStringHelper>
    3160:	60 91 b3 06 	lds	r22, 0x06B3
    3164:	70 91 b4 06 	lds	r23, 0x06B4
    3168:	4a e0       	ldi	r20, 0x0A	; 10
    316a:	50 e0       	ldi	r21, 0x00	; 0
          Ethernet1.getCmdClient().print(F("  Distance must be positive and speed must be from 2 through "));
    316c:	8a ed       	ldi	r24, 0xDA	; 218
    316e:	97 e0       	ldi	r25, 0x07	; 7
    3170:	0e 94 78 50 	call	0xa0f0	; 0xa0f0 <_ZN5Print5printEii>
    3174:	61 e1       	ldi	r22, 0x11	; 17
    3176:	7b e0       	ldi	r23, 0x0B	; 11
          Ethernet1.getCmdClient().print(posFB.getFeedbackMaxSpeed()); Ethernet1.getCmdClient().println(F(" percent."));
    3178:	8b c1       	rjmp	.+790    	; 0x3490 <__stack+0x1291>
    317a:	83 eb       	ldi	r24, 0xB3	; 179
    317c:	96 e0       	ldi	r25, 0x06	; 6
    317e:	0e 94 84 2a 	call	0x5508	; 0x5508 <_ZN21PositionFeedbackClass26haveRecentPositionFeedbackEv>
    3182:	88 23       	and	r24, r24
    3184:	09 f4       	brne	.+2      	; 0x3188 <__stack+0xf89>
    3186:	56 c0       	rjmp	.+172    	; 0x3234 <__stack+0x1035>
    3188:	b7 01       	movw	r22, r14
    318a:	8e e6       	ldi	r24, 0x6E	; 110
    318c:	97 e0       	ldi	r25, 0x07	; 7
    318e:	0e 94 18 27 	call	0x4e30	; 0x4e30 <_ZN8MM3Class9moveSetupEi>
        } else {
        if ( MCtrl.isNoLower() || MCtrl.isBrake() ) { 
          Ethernet1.getCmdClient().println(F("Cannot lower due to NO_LOWER or E_STOP input."));
        } else {
          if (posFB.haveRecentPositionFeedback() == true) {
    3192:	b7 01       	movw	r22, r14
    3194:	83 eb       	ldi	r24, 0xB3	; 179
    3196:	96 e0       	ldi	r25, 0x06	; 6
    3198:	0e 94 5c 2a 	call	0x54b8	; 0x54b8 <_ZN21PositionFeedbackClass16setFeedbackDeltaEi>
    319c:	b7 01       	movw	r22, r14
    319e:	8e e6       	ldi	r24, 0x6E	; 110
            // do the move
            MCtrl.moveSetup(speedPct);
    31a0:	97 e0       	ldi	r25, 0x07	; 7
    31a2:	0e 94 7b 24 	call	0x48f6	; 0x48f6 <_ZN8MM3Class11moveAtSpeedEi>
    31a6:	66 ed       	ldi	r22, 0xD6	; 214
    31a8:	7a e0       	ldi	r23, 0x0A	; 10
            posFB.setFeedbackDelta(speedPct);
    31aa:	8a ed       	ldi	r24, 0xDA	; 218
    31ac:	97 e0       	ldi	r25, 0x07	; 7
    31ae:	0e 94 43 4f 	call	0x9e86	; 0x9e86 <_ZN5Print5printEPK19__FlashStringHelper>
    31b2:	40 91 a7 06 	lds	r20, 0x06A7
            MCtrl.moveAtSpeed(speedPct);
    31b6:	50 91 a8 06 	lds	r21, 0x06A8
    31ba:	60 91 a9 06 	lds	r22, 0x06A9
          
            Ethernet1.getCmdClient().print(F("Moving down ")); Ethernet1.getCmdClient().print(moveTarget);
    31be:	70 91 aa 06 	lds	r23, 0x06AA
    31c2:	22 e0       	ldi	r18, 0x02	; 2
    31c4:	30 e0       	ldi	r19, 0x00	; 0
    31c6:	8a ed       	ldi	r24, 0xDA	; 218
    31c8:	97 e0       	ldi	r25, 0x07	; 7
    31ca:	0e 94 c7 51 	call	0xa38e	; 0xa38e <_ZN5Print5printEdi>
    31ce:	66 eb       	ldi	r22, 0xB6	; 182
    31d0:	7a e0       	ldi	r23, 0x0A	; 10
    31d2:	8a ed       	ldi	r24, 0xDA	; 218
    31d4:	97 e0       	ldi	r25, 0x07	; 7
    31d6:	0e 94 43 4f 	call	0x9e86	; 0x9e86 <_ZN5Print5printEPK19__FlashStringHelper>
    31da:	4a e0       	ldi	r20, 0x0A	; 10
    31dc:	50 e0       	ldi	r21, 0x00	; 0
    31de:	b7 01       	movw	r22, r14
    31e0:	8a ed       	ldi	r24, 0xDA	; 218
    31e2:	97 e0       	ldi	r25, 0x07	; 7
    31e4:	0e 94 78 50 	call	0xa0f0	; 0xa0f0 <_ZN5Print5printEii>
            Ethernet1.getCmdClient().print(F(" based on position feedback at "));
    31e8:	6e e9       	ldi	r22, 0x9E	; 158
    31ea:	7a e0       	ldi	r23, 0x0A	; 10
    31ec:	8a ed       	ldi	r24, 0xDA	; 218
    31ee:	97 e0       	ldi	r25, 0x07	; 7
    31f0:	0e 94 9a 4f 	call	0x9f34	; 0x9f34 <_ZN5Print7printlnEPK19__FlashStringHelper>
            Ethernet1.getCmdClient().print(speedPct); Ethernet1.getCmdClient().println(F(" percent of full speed."));
    31f4:	0e 94 65 2f 	call	0x5eca	; 0x5eca <_Z13checkIfMovingv>
    31f8:	20 91 bb 06 	lds	r18, 0x06BB
    31fc:	30 91 bc 06 	lds	r19, 0x06BC
    3200:	40 91 bd 06 	lds	r20, 0x06BD
    3204:	50 91 be 06 	lds	r21, 0x06BE
    3208:	60 91 a7 06 	lds	r22, 0x06A7
            checkIfMoving();
    320c:	70 91 a8 06 	lds	r23, 0x06A8
            
            // convert moveTarget to an absolute position
            moveTarget = double(posFB.getFeedbackPosition()) + moveTarget;
    3210:	80 91 a9 06 	lds	r24, 0x06A9
    3214:	90 91 aa 06 	lds	r25, 0x06AA
    3218:	0e 94 3e 55 	call	0xaa7c	; 0xaa7c <__addsf3>
    321c:	60 93 a7 06 	sts	0x06A7, r22
    3220:	70 93 a8 06 	sts	0x06A8, r23
    3224:	80 93 a9 06 	sts	0x06A9, r24
    3228:	90 93 aa 06 	sts	0x06AA, r25
    322c:	81 e0       	ldi	r24, 0x01	; 1
    322e:	80 93 c1 06 	sts	0x06C1, r24
    3232:	72 ce       	rjmp	.-796    	; 0x2f18 <__stack+0xd19>
    3234:	60 e9       	ldi	r22, 0x90	; 144
    3236:	7a e0       	ldi	r23, 0x0A	; 10
    3238:	8a ed       	ldi	r24, 0xDA	; 218
    323a:	97 e0       	ldi	r25, 0x07	; 7
    323c:	0e 94 43 4f 	call	0x9e86	; 0x9e86 <_ZN5Print5printEPK19__FlashStringHelper>
    3240:	b8 01       	movw	r22, r16
    3242:	8a ed       	ldi	r24, 0xDA	; 218
  bool movingDownWithFeedback() { return m_movingDownWithFeedback; }
  void setMovingDownWithFeedback(bool b) { m_movingDownWithFeedback = b; }
    3244:	97 e0       	ldi	r25, 0x07	; 7
    3246:	0e 94 76 4f 	call	0x9eec	; 0x9eec <_ZN5Print5printEPKc>
    324a:	62 e7       	ldi	r22, 0x72	; 114
            posFB.setMovingDownWithFeedback(true);
          } else {
            Ethernet1.getCmdClient().print(F("Bad command: ")); Ethernet1.getCmdClient().print(cmdBuf);
    324c:	7a e0       	ldi	r23, 0x0A	; 10
    324e:	20 c1       	rjmp	.+576    	; 0x3490 <__stack+0x1291>
    3250:	a3 01       	movw	r20, r6
    3252:	92 01       	movw	r18, r4
    3254:	c7 01       	movw	r24, r14
    3256:	b6 01       	movw	r22, r12
    3258:	0e 94 f1 56 	call	0xade2	; 0xade2 <__gesf2>
    325c:	18 16       	cp	r1, r24
    325e:	5c f4       	brge	.+22     	; 0x3276 <__stack+0x1077>
    3260:	80 91 76 07 	lds	r24, 0x0776
            Ethernet1.getCmdClient().println(F(" No recent position feedback."));
    3264:	90 91 77 07 	lds	r25, 0x0777
          Ethernet1.getCmdClient().print(F("Bad command: ")); Ethernet1.getCmdClient().println(cmdBuf);
        } else {
        if ( (MCtrl.getCurrPos() < moveTarget) && (MCtrl.isNoLower() || MCtrl.isBrake() )) { 
          Ethernet1.getCmdClient().println(F("Cannot lower due to NO_LOWER or E_STOP input."));
        } else {
        if ( (MCtrl.getCurrPos() > moveTarget) && (MCtrl.isNoRaise() || MCtrl.isBrake() )) {
    3268:	85 70       	andi	r24, 0x05	; 5
    326a:	99 27       	eor	r25, r25
    326c:	89 2b       	or	r24, r25
    326e:	19 f0       	breq	.+6      	; 0x3276 <__stack+0x1077>
    3270:	68 e0       	ldi	r22, 0x08	; 8
    3272:	7a e0       	ldi	r23, 0x0A	; 10
    3274:	0d c1       	rjmp	.+538    	; 0x3490 <__stack+0x1291>
    3276:	b5 01       	movw	r22, r10
    3278:	8e e6       	ldi	r24, 0x6E	; 110
    327a:	97 e0       	ldi	r25, 0x07	; 7
    327c:	0e 94 18 27 	call	0x4e30	; 0x4e30 <_ZN8MM3Class9moveSetupEi>
    3280:	40 91 a7 06 	lds	r20, 0x06A7
    3284:	50 91 a8 06 	lds	r21, 0x06A8
          Ethernet1.getCmdClient().println(F("Cannot raise due to NO_RAISE or E_STOP input."));
    3288:	60 91 a9 06 	lds	r22, 0x06A9
    328c:	70 91 aa 06 	lds	r23, 0x06AA
        } else {
          // do the command
          MCtrl.moveSetup(speedPct);
    3290:	8e e6       	ldi	r24, 0x6E	; 110
    3292:	97 e0       	ldi	r25, 0x07	; 7
    3294:	0e 94 0d 25 	call	0x4a1a	; 0x4a1a <_ZN8MM3Class9moveToPosEd>
          MCtrl.moveToPos(moveTarget);
    3298:	6d ef       	ldi	r22, 0xFD	; 253
    329a:	79 e0       	ldi	r23, 0x09	; 9
    329c:	8a ed       	ldi	r24, 0xDA	; 218
    329e:	97 e0       	ldi	r25, 0x07	; 7
    32a0:	0e 94 43 4f 	call	0x9e86	; 0x9e86 <_ZN5Print5printEPK19__FlashStringHelper>
    32a4:	40 91 a7 06 	lds	r20, 0x06A7
    32a8:	50 91 a8 06 	lds	r21, 0x06A8
    32ac:	60 91 a9 06 	lds	r22, 0x06A9
          
          Ethernet1.getCmdClient().print(F("Moving to ")); Ethernet1.getCmdClient().print(moveTarget);
    32b0:	70 91 aa 06 	lds	r23, 0x06AA
    32b4:	22 e0       	ldi	r18, 0x02	; 2
    32b6:	30 e0       	ldi	r19, 0x00	; 0
    32b8:	8a ed       	ldi	r24, 0xDA	; 218
    32ba:	97 e0       	ldi	r25, 0x07	; 7
    32bc:	0e 94 c7 51 	call	0xa38e	; 0xa38e <_ZN5Print5printEdi>
    32c0:	6c ee       	ldi	r22, 0xEC	; 236
    32c2:	79 e0       	ldi	r23, 0x09	; 9
    32c4:	8a ed       	ldi	r24, 0xDA	; 218
    32c6:	97 e0       	ldi	r25, 0x07	; 7
    32c8:	0e 94 43 4f 	call	0x9e86	; 0x9e86 <_ZN5Print5printEPK19__FlashStringHelper>
    32cc:	4a e0       	ldi	r20, 0x0A	; 10
    32ce:	50 e0       	ldi	r21, 0x00	; 0
    32d0:	b5 01       	movw	r22, r10
    32d2:	8a ed       	ldi	r24, 0xDA	; 218
    32d4:	97 e0       	ldi	r25, 0x07	; 7
    32d6:	0e 94 78 50 	call	0xa0f0	; 0xa0f0 <_ZN5Print5printEii>
          Ethernet1.getCmdClient().print(F(" revolutions at "));
    32da:	64 ed       	ldi	r22, 0xD4	; 212
    32dc:	79 e0       	ldi	r23, 0x09	; 9
    32de:	8a ed       	ldi	r24, 0xDA	; 218
    32e0:	97 e0       	ldi	r25, 0x07	; 7
    32e2:	0e 94 9a 4f 	call	0x9f34	; 0x9f34 <_ZN5Print7printlnEPK19__FlashStringHelper>
          Ethernet1.getCmdClient().print(speedPct); Ethernet1.getCmdClient().println(F(" percent of full speed."));
    32e6:	0e 94 65 2f 	call	0x5eca	; 0x5eca <_Z13checkIfMovingv>
    32ea:	16 ce       	rjmp	.-980    	; 0x2f18 <__stack+0xd19>
    32ec:	66 ec       	ldi	r22, 0xC6	; 198
    32ee:	79 e0       	ldi	r23, 0x09	; 9
    32f0:	8a ed       	ldi	r24, 0xDA	; 218
    32f2:	97 e0       	ldi	r25, 0x07	; 7
    32f4:	0e 94 43 4f 	call	0x9e86	; 0x9e86 <_ZN5Print5printEPK19__FlashStringHelper>
    32f8:	b8 01       	movw	r22, r16
    32fa:	8a ed       	ldi	r24, 0xDA	; 218
    32fc:	97 e0       	ldi	r25, 0x07	; 7
          checkIfMoving();
    32fe:	0e 94 76 4f 	call	0x9eec	; 0x9eec <_ZN5Print5printEPKc>
    3302:	66 ea       	ldi	r22, 0xA6	; 166
      } else {
        
      if ( strcmp(pch, "move_to_position") == 0) {
        int speedPct = parseMove();
        if (speedPct < 2 || speedPct > posFB.getFeedbackMaxSpeed()) {
          Ethernet1.getCmdClient().print(F("Bad command: ")); Ethernet1.getCmdClient().print(cmdBuf);
    3304:	79 e0       	ldi	r23, 0x09	; 9
    3306:	8a ed       	ldi	r24, 0xDA	; 218
    3308:	97 e0       	ldi	r25, 0x07	; 7
    330a:	0e 94 43 4f 	call	0x9e86	; 0x9e86 <_ZN5Print5printEPK19__FlashStringHelper>
    330e:	60 91 b3 06 	lds	r22, 0x06B3
    3312:	70 91 b4 06 	lds	r23, 0x06B4
    3316:	4a e0       	ldi	r20, 0x0A	; 10
    3318:	50 e0       	ldi	r21, 0x00	; 0
          Ethernet1.getCmdClient().print(F("  Speed must be from 2 through "));
    331a:	8a ed       	ldi	r24, 0xDA	; 218
    331c:	97 e0       	ldi	r25, 0x07	; 7
    331e:	0e 94 78 50 	call	0xa0f0	; 0xa0f0 <_ZN5Print5printEii>
    3322:	6c e9       	ldi	r22, 0x9C	; 156
    3324:	79 e0       	ldi	r23, 0x09	; 9
          Ethernet1.getCmdClient().print(posFB.getFeedbackMaxSpeed()); Ethernet1.getCmdClient().println(F(" percent."));
    3326:	b4 c0       	rjmp	.+360    	; 0x3490 <__stack+0x1291>
    3328:	c0 90 bb 06 	lds	r12, 0x06BB
    332c:	d0 90 bc 06 	lds	r13, 0x06BC
    3330:	e0 90 bd 06 	lds	r14, 0x06BD
    3334:	f0 90 be 06 	lds	r15, 0x06BE
    3338:	40 90 a7 06 	lds	r4, 0x06A7
    333c:	50 90 a8 06 	lds	r5, 0x06A8
  int getFeedbackMaxSpeed() { return m_fb_max_speed; }
  void setFeedbackMaxSpeed();

  void setFeedbackDelta(int speed_percent);

  float getFeedbackPosition() { return m_fbPos; }
    3340:	60 90 a9 06 	lds	r6, 0x06A9
    3344:	70 90 aa 06 	lds	r7, 0x06AA
    3348:	a3 01       	movw	r20, r6
    334a:	92 01       	movw	r18, r4
    334c:	c7 01       	movw	r24, r14
    334e:	b6 01       	movw	r22, r12
        } else {
        if ( (double(posFB.getFeedbackPosition()) < moveTarget) && (MCtrl.isNoLower() || MCtrl.isBrake()) ) { 
    3350:	0e 94 a2 55 	call	0xab44	; 0xab44 <__cmpsf2>
    3354:	87 ff       	sbrs	r24, 7
    3356:	0b c0       	rjmp	.+22     	; 0x336e <__stack+0x116f>
    3358:	80 91 76 07 	lds	r24, 0x0776
    335c:	90 91 77 07 	lds	r25, 0x0777
    3360:	86 70       	andi	r24, 0x06	; 6
    3362:	99 27       	eor	r25, r25
    3364:	89 2b       	or	r24, r25
    3366:	19 f0       	breq	.+6      	; 0x336e <__stack+0x116f>
    3368:	6e e6       	ldi	r22, 0x6E	; 110
    336a:	79 e0       	ldi	r23, 0x09	; 9
    336c:	91 c0       	rjmp	.+290    	; 0x3490 <__stack+0x1291>
    336e:	a3 01       	movw	r20, r6
    3370:	92 01       	movw	r18, r4
    3372:	c7 01       	movw	r24, r14
    3374:	b6 01       	movw	r22, r12
    3376:	0e 94 f1 56 	call	0xade2	; 0xade2 <__gesf2>
    337a:	18 16       	cp	r1, r24
    337c:	4c f4       	brge	.+18     	; 0x3390 <__stack+0x1191>
    337e:	80 91 76 07 	lds	r24, 0x0776
          Ethernet1.getCmdClient().println(F("Cannot lower due to NO_LOWER or E_STOP input."));
    3382:	90 91 77 07 	lds	r25, 0x0777
        } else {
        if ( (double(posFB.getFeedbackPosition()) > moveTarget) && (MCtrl.isNoRaise() || MCtrl.isBrake()) ) {
    3386:	85 70       	andi	r24, 0x05	; 5
    3388:	99 27       	eor	r25, r25
    338a:	89 2b       	or	r24, r25
    338c:	09 f0       	breq	.+2      	; 0x3390 <__stack+0x1191>
    338e:	7e c0       	rjmp	.+252    	; 0x348c <__stack+0x128d>
    3390:	83 eb       	ldi	r24, 0xB3	; 179
    3392:	96 e0       	ldi	r25, 0x06	; 6
    3394:	0e 94 84 2a 	call	0x5508	; 0x5508 <_ZN21PositionFeedbackClass26haveRecentPositionFeedbackEv>
    3398:	88 23       	and	r24, r24
    339a:	09 f4       	brne	.+2      	; 0x339e <__stack+0x119f>
    339c:	69 c0       	rjmp	.+210    	; 0x3470 <__stack+0x1271>
    339e:	b5 01       	movw	r22, r10
    33a0:	8e e6       	ldi	r24, 0x6E	; 110
    33a2:	97 e0       	ldi	r25, 0x07	; 7
    33a4:	0e 94 18 27 	call	0x4e30	; 0x4e30 <_ZN8MM3Class9moveSetupEi>
          Ethernet1.getCmdClient().println(F("Cannot raise due to NO_RAISE or E_STOP input."));
        } else {
          if (posFB.haveRecentPositionFeedback() == true) {
    33a8:	b5 01       	movw	r22, r10
    33aa:	83 eb       	ldi	r24, 0xB3	; 179
    33ac:	96 e0       	ldi	r25, 0x06	; 6
    33ae:	0e 94 5c 2a 	call	0x54b8	; 0x54b8 <_ZN21PositionFeedbackClass16setFeedbackDeltaEi>
    33b2:	20 91 a7 06 	lds	r18, 0x06A7
            // do the move
            MCtrl.moveSetup(speedPct);
    33b6:	30 91 a8 06 	lds	r19, 0x06A8
    33ba:	40 91 a9 06 	lds	r20, 0x06A9
    33be:	50 91 aa 06 	lds	r21, 0x06AA
            posFB.setFeedbackDelta(speedPct);
    33c2:	60 91 bb 06 	lds	r22, 0x06BB
    33c6:	70 91 bc 06 	lds	r23, 0x06BC

            // do we need to move up or down
            if (double(posFB.getFeedbackPosition()) < moveTarget) {
    33ca:	80 91 bd 06 	lds	r24, 0x06BD
    33ce:	90 91 be 06 	lds	r25, 0x06BE
    33d2:	0e 94 a2 55 	call	0xab44	; 0xab44 <__cmpsf2>
    33d6:	87 ff       	sbrs	r24, 7
    33d8:	08 c0       	rjmp	.+16     	; 0x33ea <__stack+0x11eb>
    33da:	b5 01       	movw	r22, r10
    33dc:	8e e6       	ldi	r24, 0x6E	; 110
    33de:	97 e0       	ldi	r25, 0x07	; 7
    33e0:	0e 94 7b 24 	call	0x48f6	; 0x48f6 <_ZN8MM3Class11moveAtSpeedEi>
    33e4:	81 e0       	ldi	r24, 0x01	; 1
    33e6:	80 93 c1 06 	sts	0x06C1, r24
    33ea:	20 91 a7 06 	lds	r18, 0x06A7
    33ee:	30 91 a8 06 	lds	r19, 0x06A8
              MCtrl.moveAtSpeed(speedPct);
    33f2:	40 91 a9 06 	lds	r20, 0x06A9
    33f6:	50 91 aa 06 	lds	r21, 0x06AA
    33fa:	60 91 bb 06 	lds	r22, 0x06BB

  bool haveRecentPositionFeedback();
  bool movingUpWithFeedback() { return m_movingDownWithFeedback; }
  void setMovingUpWithFeedback(bool b) { m_movingUpWithFeedback = b; }
  bool movingDownWithFeedback() { return m_movingDownWithFeedback; }
  void setMovingDownWithFeedback(bool b) { m_movingDownWithFeedback = b; }
    33fe:	70 91 bc 06 	lds	r23, 0x06BC
              posFB.setMovingDownWithFeedback(true);
            }
            if (double(posFB.getFeedbackPosition()) > moveTarget) {
    3402:	80 91 bd 06 	lds	r24, 0x06BD
    3406:	90 91 be 06 	lds	r25, 0x06BE
    340a:	0e 94 f1 56 	call	0xade2	; 0xade2 <__gesf2>
    340e:	18 16       	cp	r1, r24
    3410:	5c f4       	brge	.+22     	; 0x3428 <__stack+0x1229>
    3412:	66 27       	eor	r22, r22
    3414:	77 27       	eor	r23, r23
    3416:	6a 19       	sub	r22, r10
    3418:	7b 09       	sbc	r23, r11
    341a:	8e e6       	ldi	r24, 0x6E	; 110
    341c:	97 e0       	ldi	r25, 0x07	; 7
    341e:	0e 94 7b 24 	call	0x48f6	; 0x48f6 <_ZN8MM3Class11moveAtSpeedEi>
    3422:	81 e0       	ldi	r24, 0x01	; 1
    3424:	80 93 c0 06 	sts	0x06C0, r24
    3428:	65 e3       	ldi	r22, 0x35	; 53
              MCtrl.moveAtSpeed(-1 * speedPct);
    342a:	79 e0       	ldi	r23, 0x09	; 9
    342c:	8a ed       	ldi	r24, 0xDA	; 218
    342e:	97 e0       	ldi	r25, 0x07	; 7
    3430:	0e 94 43 4f 	call	0x9e86	; 0x9e86 <_ZN5Print5printEPK19__FlashStringHelper>
    3434:	40 91 a7 06 	lds	r20, 0x06A7
    3438:	50 91 a8 06 	lds	r21, 0x06A8

  float getFeedbackPosition() { return m_fbPos; }

  bool haveRecentPositionFeedback();
  bool movingUpWithFeedback() { return m_movingDownWithFeedback; }
  void setMovingUpWithFeedback(bool b) { m_movingUpWithFeedback = b; }
    343c:	60 91 a9 06 	lds	r22, 0x06A9
              posFB.setMovingUpWithFeedback(true);
            }
          
            Ethernet1.getCmdClient().print(F("Moving to ")); Ethernet1.getCmdClient().print(moveTarget);
    3440:	70 91 aa 06 	lds	r23, 0x06AA
    3444:	22 e0       	ldi	r18, 0x02	; 2
    3446:	30 e0       	ldi	r19, 0x00	; 0
    3448:	8a ed       	ldi	r24, 0xDA	; 218
    344a:	97 e0       	ldi	r25, 0x07	; 7
    344c:	0e 94 c7 51 	call	0xa38e	; 0xa38e <_ZN5Print5printEdi>
    3450:	65 e1       	ldi	r22, 0x15	; 21
    3452:	79 e0       	ldi	r23, 0x09	; 9
    3454:	8a ed       	ldi	r24, 0xDA	; 218
    3456:	97 e0       	ldi	r25, 0x07	; 7
    3458:	0e 94 43 4f 	call	0x9e86	; 0x9e86 <_ZN5Print5printEPK19__FlashStringHelper>
    345c:	4a e0       	ldi	r20, 0x0A	; 10
    345e:	50 e0       	ldi	r21, 0x00	; 0
    3460:	b5 01       	movw	r22, r10
    3462:	8a ed       	ldi	r24, 0xDA	; 218
    3464:	97 e0       	ldi	r25, 0x07	; 7
    3466:	0e 94 78 50 	call	0xa0f0	; 0xa0f0 <_ZN5Print5printEii>
            Ethernet1.getCmdClient().print(F(" based on position feedback at "));
    346a:	6d ef       	ldi	r22, 0xFD	; 253
    346c:	78 e0       	ldi	r23, 0x08	; 8
    346e:	37 cf       	rjmp	.-402    	; 0x32de <__stack+0x10df>
    3470:	6f ee       	ldi	r22, 0xEF	; 239
    3472:	78 e0       	ldi	r23, 0x08	; 8
            Ethernet1.getCmdClient().print(speedPct); Ethernet1.getCmdClient().println(F(" percent of full speed."));
    3474:	8a ed       	ldi	r24, 0xDA	; 218
    3476:	97 e0       	ldi	r25, 0x07	; 7
    3478:	0e 94 43 4f 	call	0x9e86	; 0x9e86 <_ZN5Print5printEPK19__FlashStringHelper>
    347c:	b8 01       	movw	r22, r16
    347e:	8a ed       	ldi	r24, 0xDA	; 218
    3480:	97 e0       	ldi	r25, 0x07	; 7
    3482:	0e 94 76 4f 	call	0x9eec	; 0x9eec <_ZN5Print5printEPKc>
    3486:	61 ed       	ldi	r22, 0xD1	; 209
            checkIfMoving();
          } else {
            Ethernet1.getCmdClient().print(F("Bad command: ")); Ethernet1.getCmdClient().print(cmdBuf);
    3488:	78 e0       	ldi	r23, 0x08	; 8
    348a:	02 c0       	rjmp	.+4      	; 0x3490 <__stack+0x1291>
    348c:	60 e4       	ldi	r22, 0x40	; 64
    348e:	79 e0       	ldi	r23, 0x09	; 9
    3490:	8a ed       	ldi	r24, 0xDA	; 218
    3492:	97 e0       	ldi	r25, 0x07	; 7
    3494:	0e 94 9a 4f 	call	0x9f34	; 0x9f34 <_ZN5Print7printlnEPK19__FlashStringHelper>
    3498:	3f cd       	rjmp	.-1410   	; 0x2f18 <__stack+0xd19>
    349a:	c8 59       	subi	r28, 0x98	; 152
    349c:	df 4f       	sbci	r29, 0xFF	; 255
            Ethernet1.getCmdClient().println(F(" No recent position feedback."));
    349e:	0f b6       	in	r0, 0x3f	; 63
    34a0:	f8 94       	cli
    34a2:	de bf       	out	0x3e, r29	; 62
        } else {
        if ( (double(posFB.getFeedbackPosition()) < moveTarget) && (MCtrl.isNoLower() || MCtrl.isBrake()) ) { 
          Ethernet1.getCmdClient().println(F("Cannot lower due to NO_LOWER or E_STOP input."));
        } else {
        if ( (double(posFB.getFeedbackPosition()) > moveTarget) && (MCtrl.isNoRaise() || MCtrl.isBrake()) ) {
          Ethernet1.getCmdClient().println(F("Cannot raise due to NO_RAISE or E_STOP input."));
    34a4:	0f be       	out	0x3f, r0	; 63
    34a6:	cd bf       	out	0x3d, r28	; 61
    34a8:	df 91       	pop	r29
    34aa:	cf 91       	pop	r28
    34ac:	1f 91       	pop	r17
    34ae:	0f 91       	pop	r16
    34b0:	ff 90       	pop	r15
      }}}}}}}}}}}}}}}}}}}}}}}}}}}}}}}}}

    }
      memset(cmdBuf, 0, CMD_BUF_LEN);  // clear the command buffer after processing
  }
}
    34b2:	ef 90       	pop	r14
    34b4:	df 90       	pop	r13
    34b6:	cf 90       	pop	r12
    34b8:	bf 90       	pop	r11
    34ba:	af 90       	pop	r10
    34bc:	9f 90       	pop	r9
    34be:	8f 90       	pop	r8
    34c0:	7f 90       	pop	r7
    34c2:	6f 90       	pop	r6
    34c4:	5f 90       	pop	r5
    34c6:	4f 90       	pop	r4
    34c8:	08 95       	ret

000034ca <_GLOBAL__sub_I__ZN17cmdProcessorClassC2Ev>:
    34ca:	0f 93       	push	r16
    34cc:	00 e0       	ldi	r16, 0x00	; 0
    34ce:	20 e0       	ldi	r18, 0x00	; 0
    34d0:	40 e0       	ldi	r20, 0x00	; 0
    34d2:	60 e0       	ldi	r22, 0x00	; 0
    34d4:	88 e8       	ldi	r24, 0x88	; 136
    34d6:	96 e0       	ldi	r25, 0x06	; 6
    34d8:	0e 94 c2 4e 	call	0x9d84	; 0x9d84 <_ZN9IPAddressC1Ehhhh>
    34dc:	0f 91       	pop	r16
    34de:	08 95       	ret

000034e0 <_ZN11EEPROMClass4readEi.isra.0>:

    EERef( const int index )
        : index( index )                 {}
    
    //Access/read members.
    uint8_t operator*() const            { return eeprom_read_byte( (uint8_t*) index ); }
    34e0:	0c 94 ed 5e 	jmp	0xbdda	; 0xbdda <__eerd_byte_m2560>

000034e4 <_ZN17EepromAccessClass13readEEPromIntEi>:
// 
// 

#include "EepromAccess.h"

unsigned int EepromAccessClass::readEEPromInt(int addr) {
    34e4:	1f 93       	push	r17
    34e6:	cf 93       	push	r28
    34e8:	df 93       	push	r29
    34ea:	eb 01       	movw	r28, r22
  byte b1 = EEPROM.read(addr);
    34ec:	cb 01       	movw	r24, r22
    34ee:	f8 df       	rcall	.-16     	; 0x34e0 <_ZN11EEPROMClass4readEi.isra.0>
    34f0:	18 2f       	mov	r17, r24
    34f2:	ce 01       	movw	r24, r28
  byte b2 = EEPROM.read(addr + 1);
    34f4:	01 96       	adiw	r24, 0x01	; 1
    34f6:	f4 df       	rcall	.-24     	; 0x34e0 <_ZN11EEPROMClass4readEi.isra.0>
    34f8:	21 2f       	mov	r18, r17
    34fa:	30 e0       	ldi	r19, 0x00	; 0
  return (unsigned int)b1 * 256 + (unsigned int)b2;
    34fc:	32 2f       	mov	r19, r18
    34fe:	22 27       	eor	r18, r18
    3500:	a9 01       	movw	r20, r18
    3502:	48 0f       	add	r20, r24
}
    3504:	51 1d       	adc	r21, r1
    3506:	ca 01       	movw	r24, r20
    3508:	df 91       	pop	r29
    350a:	cf 91       	pop	r28
    350c:	1f 91       	pop	r17
    350e:	08 95       	ret

00003510 <_ZN17EepromAccessClass14writeEEPromIntEii>:
    3510:	df 92       	push	r13
    3512:	ef 92       	push	r14

void EepromAccessClass::writeEEPromInt(int addr, int val) {
    3514:	ff 92       	push	r15
    3516:	0f 93       	push	r16
    3518:	1f 93       	push	r17
    351a:	cf 93       	push	r28
    351c:	df 93       	push	r29
    351e:	8b 01       	movw	r16, r22
    3520:	ea 01       	movw	r28, r20
  // Read the value, see if it has changed, and write only if it has.
  byte b1 = EEPROM.read(addr);
    3522:	cb 01       	movw	r24, r22
    3524:	dd df       	rcall	.-70     	; 0x34e0 <_ZN11EEPROMClass4readEi.isra.0>
    3526:	d8 2e       	mov	r13, r24
    3528:	78 01       	movw	r14, r16
  byte b2 = EEPROM.read(addr + 1);
    352a:	8f ef       	ldi	r24, 0xFF	; 255
    352c:	e8 1a       	sub	r14, r24
    352e:	f8 0a       	sbc	r15, r24
    3530:	c7 01       	movw	r24, r14
    3532:	d6 df       	rcall	.-84     	; 0x34e0 <_ZN11EEPROMClass4readEi.isra.0>
    3534:	2d 2d       	mov	r18, r13
    3536:	30 e0       	ldi	r19, 0x00	; 0
  unsigned int v = (unsigned int)b1 * 256 + (unsigned int)b2;
    3538:	32 2f       	mov	r19, r18
    353a:	22 27       	eor	r18, r18
    353c:	28 0f       	add	r18, r24
    353e:	31 1d       	adc	r19, r1
    3540:	2c 17       	cp	r18, r28
    3542:	3d 07       	cpc	r19, r29
  if ((int)v != val) {
    3544:	49 f1       	breq	.+82     	; 0x3598 <_ZN17EepromAccessClass14writeEEPromIntEii+0x88>
    3546:	6f e8       	ldi	r22, 0x8F	; 143
    3548:	7e e0       	ldi	r23, 0x0E	; 14
    b1 = (byte)(val >> 8);
    b2 = (byte)(val & 0xFF);

    Serial.print(F("Writing the following values to EEPROM: "));
    354a:	86 ec       	ldi	r24, 0xC6	; 198
    354c:	98 e0       	ldi	r25, 0x08	; 8
    354e:	0e 94 43 4f 	call	0x9e86	; 0x9e86 <_ZN5Print5printEPK19__FlashStringHelper>
